

Microchip MPLAB XC8 Assembler V2.20 build 20200408173844 
                                                                                               Sat Jul 18 17:05:43 2020

Microchip MPLAB XC8 C Compiler v2.20 (Free license) build 20200408173844 Og1 
     1                           	processor	16LF1708
     2                           	pagewidth 120
     3                           	opt	flic
     4                           	psect	stringtext1,global,class=STRCODE,delta=2,noexec
     5                           	psect	nvBANK0,global,class=BANK0,space=1,delta=1,noexec
     6                           	psect	stringtext2,global,class=STRCODE,delta=2,noexec
     7                           	psect	stringtext3,global,class=STRCODE,delta=2,noexec
     8                           	psect	stringtext4,global,class=STRCODE,delta=2,noexec
     9                           	psect	stringtext5,global,class=STRCODE,delta=2,noexec
    10                           	psect	cinit,global,class=CODE,merge=1,delta=2
    11                           	psect	bssCOMMON,global,class=COMMON,space=1,delta=1,noexec
    12                           	psect	bssBANK0,global,class=BANK0,space=1,delta=1,noexec
    13                           	psect	bssBANK1,global,class=BANK1,space=1,delta=1,noexec
    14                           	psect	clrtext,global,class=CODE,delta=2
    15                           	psect	cstackCOMMON,global,class=COMMON,space=1,delta=1,noexec
    16                           	psect	cstackBANK0,global,class=BANK0,space=1,delta=1,noexec
    17                           	psect	maintext,global,class=CODE,merge=1,split=1,delta=2
    18                           	psect	text1,local,class=CODE,merge=1,delta=2
    19                           	psect	text2,local,class=CODE,merge=1,delta=2
    20                           	psect	text3,local,class=CODE,merge=1,delta=2
    21                           	psect	text4,local,class=CODE,merge=1,delta=2
    22                           	psect	text5,local,class=CODE,merge=1,delta=2,group=1
    23                           	psect	text6,local,class=CODE,merge=1,delta=2
    24                           	psect	text7,local,class=CODE,merge=1,delta=2
    25                           	psect	text8,local,class=CODE,merge=1,delta=2,group=2
    26                           	psect	text9,local,class=CODE,merge=1,delta=2,group=2
    27                           	psect	text10,local,class=CODE,merge=1,delta=2
    28                           	psect	text11,local,class=CODE,merge=1,delta=2
    29                           	psect	text12,local,class=CODE,merge=1,delta=2
    30                           	psect	text13,local,class=CODE,merge=1,delta=2
    31                           	psect	text14,local,class=CODE,merge=1,delta=2,group=2
    32                           	psect	text15,local,class=CODE,merge=1,delta=2
    33                           	psect	text16,local,class=CODE,merge=1,delta=2
    34                           	psect	text17,local,class=CODE,merge=1,delta=2
    35                           	psect	text18,local,class=CODE,merge=1,delta=2
    36                           	psect	text19,local,class=CODE,merge=1,delta=2
    37                           	psect	text20,local,class=CODE,merge=1,delta=2
    38                           	psect	text21,local,class=CODE,merge=1,delta=2
    39                           	psect	text22,local,class=CODE,merge=1,delta=2
    40                           	psect	text23,local,class=CODE,merge=1,delta=2
    41                           	psect	text24,local,class=CODE,merge=1,delta=2
    42                           	psect	text25,local,class=CODE,merge=1,delta=2
    43                           	psect	text26,local,class=CODE,merge=1,delta=2
    44                           	psect	text27,local,class=CODE,merge=1,delta=2
    45                           	psect	text28,local,class=CODE,merge=1,delta=2
    46                           	psect	text29,local,class=CODE,merge=1,delta=2
    47                           	psect	intentry,global,class=CODE,delta=2
    48                           	psect	text31,local,class=CODE,merge=1,delta=2
    49                           	psect	text32,local,class=CODE,merge=1,delta=2
    50                           	psect	text33,local,class=CODE,merge=1,delta=2
    51                           	psect	text34,local,class=CODE,merge=1,delta=2
    52                           	psect	config,global,abs,ovrld,class=CONFIG,space=4,delta=2,noexec
    53                           	dabs	1,0x7E,2
    54  0000                     
    55                           ; Version 2.20
    56                           ; Generated 09/04/2020 GMT
    57                           ; 
    58                           ; Copyright © 2020, Microchip Technology Inc. and its subsidiaries ("Microchip")
    59                           ; All rights reserved.
    60                           ; 
    61                           ; This software is developed by Microchip Technology Inc. and its subsidiaries ("Microch
      +                          ip").
    62                           ; 
    63                           ; Redistribution and use in source and binary forms, with or without modification, are
    64                           ; permitted provided that the following conditions are met:
    65                           ; 
    66                           ;     1. Redistributions of source code must retain the above copyright notice, this lis
      +                          t of
    67                           ;        conditions and the following disclaimer.
    68                           ; 
    69                           ;     2. Redistributions in binary form must reproduce the above copyright notice, this 
      +                          list
    70                           ;        of conditions and the following disclaimer in the documentation and/or other
    71                           ;        materials provided with the distribution.
    72                           ; 
    73                           ;     3. Microchip's name may not be used to endorse or promote products derived from th
      +                          is
    74                           ;        software without specific prior written permission.
    75                           ; 
    76                           ; THIS SOFTWARE IS PROVIDED BY MICROCHIP "AS IS" AND ANY EXPRESS OR IMPLIED WARRANTIES,
    77                           ; INCLUDING, BUT NOT LIMITED TO, THE IMPLIED WARRANTIES OF MERCHANTABILITY AND FITNESS F
      +                          OR
    78                           ; PURPOSE ARE DISCLAIMED.  IN NO EVENT SHALL MICROCHIP BE LIABLE FOR ANY DIRECT, INDIREC
      +                          T,
    79                           ; INCIDENTAL, SPECIAL, EXEMPLARY, OR CONSEQUENTIAL DAMAGES (INCLUDING BUT NOT LIMITED TO
    80                           ; PROCUREMENT OF SUBSTITUTE GOODS OR SERVICES; LOSS OF USE, DATA OR PROFITS; OR BUSINESS
    81                           ; INTERRUPTION) HOWSOEVER CAUSED AND ON ANY THEORY OF LIABILITY, WHETHER IN CONTRACT, ST
      +                          RICT
    82                           ; LIABILITY, OR TORT (INCLUDING NEGLIGENCE OR OTHERWISE) ARISING IN ANY WAY OUT OF THE U
      +                          SE OF
    83                           ; THIS SOFTWARE, EVEN IF ADVISED OF THE POSSIBILITY OF SUCH DAMAGE.
    84                           ; 
    85                           ; 
    86                           ; Code-generator required, PIC16LF1708 Definitions
    87                           ; 
    88                           ; SFR Addresses
    89  0000                     	;# 
    90  0001                     	;# 
    91  0002                     	;# 
    92  0003                     	;# 
    93  0004                     	;# 
    94  0005                     	;# 
    95  0006                     	;# 
    96  0007                     	;# 
    97  0008                     	;# 
    98  0009                     	;# 
    99  000A                     	;# 
   100  000B                     	;# 
   101  000C                     	;# 
   102  000D                     	;# 
   103  000E                     	;# 
   104  0011                     	;# 
   105  0012                     	;# 
   106  0013                     	;# 
   107  0015                     	;# 
   108  0016                     	;# 
   109  0016                     	;# 
   110  0017                     	;# 
   111  0018                     	;# 
   112  0019                     	;# 
   113  001A                     	;# 
   114  001B                     	;# 
   115  001C                     	;# 
   116  008C                     	;# 
   117  008D                     	;# 
   118  008E                     	;# 
   119  0091                     	;# 
   120  0092                     	;# 
   121  0093                     	;# 
   122  0095                     	;# 
   123  0096                     	;# 
   124  0097                     	;# 
   125  0098                     	;# 
   126  0099                     	;# 
   127  009A                     	;# 
   128  009B                     	;# 
   129  009B                     	;# 
   130  009C                     	;# 
   131  009D                     	;# 
   132  009E                     	;# 
   133  009F                     	;# 
   134  010C                     	;# 
   135  010D                     	;# 
   136  010E                     	;# 
   137  0111                     	;# 
   138  0112                     	;# 
   139  0113                     	;# 
   140  0114                     	;# 
   141  0115                     	;# 
   142  0116                     	;# 
   143  0117                     	;# 
   144  0118                     	;# 
   145  0119                     	;# 
   146  011C                     	;# 
   147  018C                     	;# 
   148  018D                     	;# 
   149  018E                     	;# 
   150  0191                     	;# 
   151  0191                     	;# 
   152  0192                     	;# 
   153  0193                     	;# 
   154  0193                     	;# 
   155  0194                     	;# 
   156  0195                     	;# 
   157  0196                     	;# 
   158  0199                     	;# 
   159  0199                     	;# 
   160  0199                     	;# 
   161  019A                     	;# 
   162  019A                     	;# 
   163  019A                     	;# 
   164  019B                     	;# 
   165  019B                     	;# 
   166  019B                     	;# 
   167  019B                     	;# 
   168  019B                     	;# 
   169  019C                     	;# 
   170  019C                     	;# 
   171  019C                     	;# 
   172  019D                     	;# 
   173  019D                     	;# 
   174  019D                     	;# 
   175  019E                     	;# 
   176  019E                     	;# 
   177  019E                     	;# 
   178  019F                     	;# 
   179  019F                     	;# 
   180  019F                     	;# 
   181  019F                     	;# 
   182  019F                     	;# 
   183  020C                     	;# 
   184  020D                     	;# 
   185  020E                     	;# 
   186  0211                     	;# 
   187  0211                     	;# 
   188  0212                     	;# 
   189  0212                     	;# 
   190  0213                     	;# 
   191  0213                     	;# 
   192  0214                     	;# 
   193  0214                     	;# 
   194  0215                     	;# 
   195  0215                     	;# 
   196  0215                     	;# 
   197  0215                     	;# 
   198  0216                     	;# 
   199  0216                     	;# 
   200  0217                     	;# 
   201  0217                     	;# 
   202  028C                     	;# 
   203  028D                     	;# 
   204  028E                     	;# 
   205  0291                     	;# 
   206  0291                     	;# 
   207  0292                     	;# 
   208  0293                     	;# 
   209  0293                     	;# 
   210  0298                     	;# 
   211  0298                     	;# 
   212  0299                     	;# 
   213  029A                     	;# 
   214  029A                     	;# 
   215  029E                     	;# 
   216  030C                     	;# 
   217  030D                     	;# 
   218  030E                     	;# 
   219  038C                     	;# 
   220  038D                     	;# 
   221  038E                     	;# 
   222  0391                     	;# 
   223  0392                     	;# 
   224  0393                     	;# 
   225  0394                     	;# 
   226  0395                     	;# 
   227  0396                     	;# 
   228  0397                     	;# 
   229  0398                     	;# 
   230  0399                     	;# 
   231  0415                     	;# 
   232  0416                     	;# 
   233  0417                     	;# 
   234  041C                     	;# 
   235  041D                     	;# 
   236  041E                     	;# 
   237  0511                     	;# 
   238  0515                     	;# 
   239  0617                     	;# 
   240  0618                     	;# 
   241  0619                     	;# 
   242  0619                     	;# 
   243  061A                     	;# 
   244  061B                     	;# 
   245  061C                     	;# 
   246  061C                     	;# 
   247  0691                     	;# 
   248  0692                     	;# 
   249  0693                     	;# 
   250  0694                     	;# 
   251  0695                     	;# 
   252  0696                     	;# 
   253  0697                     	;# 
   254  0698                     	;# 
   255  0699                     	;# 
   256  069A                     	;# 
   257  069B                     	;# 
   258  069C                     	;# 
   259  069D                     	;# 
   260  069E                     	;# 
   261  069F                     	;# 
   262  0E0F                     	;# 
   263  0E10                     	;# 
   264  0E11                     	;# 
   265  0E12                     	;# 
   266  0E13                     	;# 
   267  0E14                     	;# 
   268  0E15                     	;# 
   269  0E17                     	;# 
   270  0E20                     	;# 
   271  0E21                     	;# 
   272  0E22                     	;# 
   273  0E24                     	;# 
   274  0E25                     	;# 
   275  0E28                     	;# 
   276  0E29                     	;# 
   277  0E2A                     	;# 
   278  0E2B                     	;# 
   279  0E90                     	;# 
   280  0E91                     	;# 
   281  0E92                     	;# 
   282  0E94                     	;# 
   283  0E95                     	;# 
   284  0E9C                     	;# 
   285  0E9D                     	;# 
   286  0E9E                     	;# 
   287  0E9F                     	;# 
   288  0EA0                     	;# 
   289  0EA1                     	;# 
   290  0EA2                     	;# 
   291  0EA3                     	;# 
   292  0EA4                     	;# 
   293  0EA5                     	;# 
   294  0EA6                     	;# 
   295  0EA7                     	;# 
   296  0F0F                     	;# 
   297  0F10                     	;# 
   298  0F11                     	;# 
   299  0F12                     	;# 
   300  0F13                     	;# 
   301  0F14                     	;# 
   302  0F15                     	;# 
   303  0F16                     	;# 
   304  0F17                     	;# 
   305  0F18                     	;# 
   306  0F19                     	;# 
   307  0F1A                     	;# 
   308  0F1B                     	;# 
   309  0F1C                     	;# 
   310  0F1D                     	;# 
   311  0F1E                     	;# 
   312  0F1F                     	;# 
   313  0F20                     	;# 
   314  0F21                     	;# 
   315  0F22                     	;# 
   316  0F23                     	;# 
   317  0F24                     	;# 
   318  0F25                     	;# 
   319  0F26                     	;# 
   320  0F27                     	;# 
   321  0F28                     	;# 
   322  0F29                     	;# 
   323  0F2A                     	;# 
   324  0F2B                     	;# 
   325  0F2C                     	;# 
   326  0F2D                     	;# 
   327  0FE4                     	;# 
   328  0FE5                     	;# 
   329  0FE6                     	;# 
   330  0FE7                     	;# 
   331  0FE8                     	;# 
   332  0FE9                     	;# 
   333  0FEA                     	;# 
   334  0FEB                     	;# 
   335  0FED                     	;# 
   336  0FEE                     	;# 
   337  0FEF                     	;# 
   338  0000                     	;# 
   339  0001                     	;# 
   340  0002                     	;# 
   341  0003                     	;# 
   342  0004                     	;# 
   343  0005                     	;# 
   344  0006                     	;# 
   345  0007                     	;# 
   346  0008                     	;# 
   347  0009                     	;# 
   348  000A                     	;# 
   349  000B                     	;# 
   350  000C                     	;# 
   351  000D                     	;# 
   352  000E                     	;# 
   353  0011                     	;# 
   354  0012                     	;# 
   355  0013                     	;# 
   356  0015                     	;# 
   357  0016                     	;# 
   358  0016                     	;# 
   359  0017                     	;# 
   360  0018                     	;# 
   361  0019                     	;# 
   362  001A                     	;# 
   363  001B                     	;# 
   364  001C                     	;# 
   365  008C                     	;# 
   366  008D                     	;# 
   367  008E                     	;# 
   368  0091                     	;# 
   369  0092                     	;# 
   370  0093                     	;# 
   371  0095                     	;# 
   372  0096                     	;# 
   373  0097                     	;# 
   374  0098                     	;# 
   375  0099                     	;# 
   376  009A                     	;# 
   377  009B                     	;# 
   378  009B                     	;# 
   379  009C                     	;# 
   380  009D                     	;# 
   381  009E                     	;# 
   382  009F                     	;# 
   383  010C                     	;# 
   384  010D                     	;# 
   385  010E                     	;# 
   386  0111                     	;# 
   387  0112                     	;# 
   388  0113                     	;# 
   389  0114                     	;# 
   390  0115                     	;# 
   391  0116                     	;# 
   392  0117                     	;# 
   393  0118                     	;# 
   394  0119                     	;# 
   395  011C                     	;# 
   396  018C                     	;# 
   397  018D                     	;# 
   398  018E                     	;# 
   399  0191                     	;# 
   400  0191                     	;# 
   401  0192                     	;# 
   402  0193                     	;# 
   403  0193                     	;# 
   404  0194                     	;# 
   405  0195                     	;# 
   406  0196                     	;# 
   407  0199                     	;# 
   408  0199                     	;# 
   409  0199                     	;# 
   410  019A                     	;# 
   411  019A                     	;# 
   412  019A                     	;# 
   413  019B                     	;# 
   414  019B                     	;# 
   415  019B                     	;# 
   416  019B                     	;# 
   417  019B                     	;# 
   418  019C                     	;# 
   419  019C                     	;# 
   420  019C                     	;# 
   421  019D                     	;# 
   422  019D                     	;# 
   423  019D                     	;# 
   424  019E                     	;# 
   425  019E                     	;# 
   426  019E                     	;# 
   427  019F                     	;# 
   428  019F                     	;# 
   429  019F                     	;# 
   430  019F                     	;# 
   431  019F                     	;# 
   432  020C                     	;# 
   433  020D                     	;# 
   434  020E                     	;# 
   435  0211                     	;# 
   436  0211                     	;# 
   437  0212                     	;# 
   438  0212                     	;# 
   439  0213                     	;# 
   440  0213                     	;# 
   441  0214                     	;# 
   442  0214                     	;# 
   443  0215                     	;# 
   444  0215                     	;# 
   445  0215                     	;# 
   446  0215                     	;# 
   447  0216                     	;# 
   448  0216                     	;# 
   449  0217                     	;# 
   450  0217                     	;# 
   451  028C                     	;# 
   452  028D                     	;# 
   453  028E                     	;# 
   454  0291                     	;# 
   455  0291                     	;# 
   456  0292                     	;# 
   457  0293                     	;# 
   458  0293                     	;# 
   459  0298                     	;# 
   460  0298                     	;# 
   461  0299                     	;# 
   462  029A                     	;# 
   463  029A                     	;# 
   464  029E                     	;# 
   465  030C                     	;# 
   466  030D                     	;# 
   467  030E                     	;# 
   468  038C                     	;# 
   469  038D                     	;# 
   470  038E                     	;# 
   471  0391                     	;# 
   472  0392                     	;# 
   473  0393                     	;# 
   474  0394                     	;# 
   475  0395                     	;# 
   476  0396                     	;# 
   477  0397                     	;# 
   478  0398                     	;# 
   479  0399                     	;# 
   480  0415                     	;# 
   481  0416                     	;# 
   482  0417                     	;# 
   483  041C                     	;# 
   484  041D                     	;# 
   485  041E                     	;# 
   486  0511                     	;# 
   487  0515                     	;# 
   488  0617                     	;# 
   489  0618                     	;# 
   490  0619                     	;# 
   491  0619                     	;# 
   492  061A                     	;# 
   493  061B                     	;# 
   494  061C                     	;# 
   495  061C                     	;# 
   496  0691                     	;# 
   497  0692                     	;# 
   498  0693                     	;# 
   499  0694                     	;# 
   500  0695                     	;# 
   501  0696                     	;# 
   502  0697                     	;# 
   503  0698                     	;# 
   504  0699                     	;# 
   505  069A                     	;# 
   506  069B                     	;# 
   507  069C                     	;# 
   508  069D                     	;# 
   509  069E                     	;# 
   510  069F                     	;# 
   511  0E0F                     	;# 
   512  0E10                     	;# 
   513  0E11                     	;# 
   514  0E12                     	;# 
   515  0E13                     	;# 
   516  0E14                     	;# 
   517  0E15                     	;# 
   518  0E17                     	;# 
   519  0E20                     	;# 
   520  0E21                     	;# 
   521  0E22                     	;# 
   522  0E24                     	;# 
   523  0E25                     	;# 
   524  0E28                     	;# 
   525  0E29                     	;# 
   526  0E2A                     	;# 
   527  0E2B                     	;# 
   528  0E90                     	;# 
   529  0E91                     	;# 
   530  0E92                     	;# 
   531  0E94                     	;# 
   532  0E95                     	;# 
   533  0E9C                     	;# 
   534  0E9D                     	;# 
   535  0E9E                     	;# 
   536  0E9F                     	;# 
   537  0EA0                     	;# 
   538  0EA1                     	;# 
   539  0EA2                     	;# 
   540  0EA3                     	;# 
   541  0EA4                     	;# 
   542  0EA5                     	;# 
   543  0EA6                     	;# 
   544  0EA7                     	;# 
   545  0F0F                     	;# 
   546  0F10                     	;# 
   547  0F11                     	;# 
   548  0F12                     	;# 
   549  0F13                     	;# 
   550  0F14                     	;# 
   551  0F15                     	;# 
   552  0F16                     	;# 
   553  0F17                     	;# 
   554  0F18                     	;# 
   555  0F19                     	;# 
   556  0F1A                     	;# 
   557  0F1B                     	;# 
   558  0F1C                     	;# 
   559  0F1D                     	;# 
   560  0F1E                     	;# 
   561  0F1F                     	;# 
   562  0F20                     	;# 
   563  0F21                     	;# 
   564  0F22                     	;# 
   565  0F23                     	;# 
   566  0F24                     	;# 
   567  0F25                     	;# 
   568  0F26                     	;# 
   569  0F27                     	;# 
   570  0F28                     	;# 
   571  0F29                     	;# 
   572  0F2A                     	;# 
   573  0F2B                     	;# 
   574  0F2C                     	;# 
   575  0F2D                     	;# 
   576  0FE4                     	;# 
   577  0FE5                     	;# 
   578  0FE6                     	;# 
   579  0FE7                     	;# 
   580  0FE8                     	;# 
   581  0FE9                     	;# 
   582  0FEA                     	;# 
   583  0FEB                     	;# 
   584  0FED                     	;# 
   585  0FEE                     	;# 
   586  0FEF                     	;# 
   587  0000                     	;# 
   588  0001                     	;# 
   589  0002                     	;# 
   590  0003                     	;# 
   591  0004                     	;# 
   592  0005                     	;# 
   593  0006                     	;# 
   594  0007                     	;# 
   595  0008                     	;# 
   596  0009                     	;# 
   597  000A                     	;# 
   598  000B                     	;# 
   599  000C                     	;# 
   600  000D                     	;# 
   601  000E                     	;# 
   602  0011                     	;# 
   603  0012                     	;# 
   604  0013                     	;# 
   605  0015                     	;# 
   606  0016                     	;# 
   607  0016                     	;# 
   608  0017                     	;# 
   609  0018                     	;# 
   610  0019                     	;# 
   611  001A                     	;# 
   612  001B                     	;# 
   613  001C                     	;# 
   614  008C                     	;# 
   615  008D                     	;# 
   616  008E                     	;# 
   617  0091                     	;# 
   618  0092                     	;# 
   619  0093                     	;# 
   620  0095                     	;# 
   621  0096                     	;# 
   622  0097                     	;# 
   623  0098                     	;# 
   624  0099                     	;# 
   625  009A                     	;# 
   626  009B                     	;# 
   627  009B                     	;# 
   628  009C                     	;# 
   629  009D                     	;# 
   630  009E                     	;# 
   631  009F                     	;# 
   632  010C                     	;# 
   633  010D                     	;# 
   634  010E                     	;# 
   635  0111                     	;# 
   636  0112                     	;# 
   637  0113                     	;# 
   638  0114                     	;# 
   639  0115                     	;# 
   640  0116                     	;# 
   641  0117                     	;# 
   642  0118                     	;# 
   643  0119                     	;# 
   644  011C                     	;# 
   645  018C                     	;# 
   646  018D                     	;# 
   647  018E                     	;# 
   648  0191                     	;# 
   649  0191                     	;# 
   650  0192                     	;# 
   651  0193                     	;# 
   652  0193                     	;# 
   653  0194                     	;# 
   654  0195                     	;# 
   655  0196                     	;# 
   656  0199                     	;# 
   657  0199                     	;# 
   658  0199                     	;# 
   659  019A                     	;# 
   660  019A                     	;# 
   661  019A                     	;# 
   662  019B                     	;# 
   663  019B                     	;# 
   664  019B                     	;# 
   665  019B                     	;# 
   666  019B                     	;# 
   667  019C                     	;# 
   668  019C                     	;# 
   669  019C                     	;# 
   670  019D                     	;# 
   671  019D                     	;# 
   672  019D                     	;# 
   673  019E                     	;# 
   674  019E                     	;# 
   675  019E                     	;# 
   676  019F                     	;# 
   677  019F                     	;# 
   678  019F                     	;# 
   679  019F                     	;# 
   680  019F                     	;# 
   681  020C                     	;# 
   682  020D                     	;# 
   683  020E                     	;# 
   684  0211                     	;# 
   685  0211                     	;# 
   686  0212                     	;# 
   687  0212                     	;# 
   688  0213                     	;# 
   689  0213                     	;# 
   690  0214                     	;# 
   691  0214                     	;# 
   692  0215                     	;# 
   693  0215                     	;# 
   694  0215                     	;# 
   695  0215                     	;# 
   696  0216                     	;# 
   697  0216                     	;# 
   698  0217                     	;# 
   699  0217                     	;# 
   700  028C                     	;# 
   701  028D                     	;# 
   702  028E                     	;# 
   703  0291                     	;# 
   704  0291                     	;# 
   705  0292                     	;# 
   706  0293                     	;# 
   707  0293                     	;# 
   708  0298                     	;# 
   709  0298                     	;# 
   710  0299                     	;# 
   711  029A                     	;# 
   712  029A                     	;# 
   713  029E                     	;# 
   714  030C                     	;# 
   715  030D                     	;# 
   716  030E                     	;# 
   717  038C                     	;# 
   718  038D                     	;# 
   719  038E                     	;# 
   720  0391                     	;# 
   721  0392                     	;# 
   722  0393                     	;# 
   723  0394                     	;# 
   724  0395                     	;# 
   725  0396                     	;# 
   726  0397                     	;# 
   727  0398                     	;# 
   728  0399                     	;# 
   729  0415                     	;# 
   730  0416                     	;# 
   731  0417                     	;# 
   732  041C                     	;# 
   733  041D                     	;# 
   734  041E                     	;# 
   735  0511                     	;# 
   736  0515                     	;# 
   737  0617                     	;# 
   738  0618                     	;# 
   739  0619                     	;# 
   740  0619                     	;# 
   741  061A                     	;# 
   742  061B                     	;# 
   743  061C                     	;# 
   744  061C                     	;# 
   745  0691                     	;# 
   746  0692                     	;# 
   747  0693                     	;# 
   748  0694                     	;# 
   749  0695                     	;# 
   750  0696                     	;# 
   751  0697                     	;# 
   752  0698                     	;# 
   753  0699                     	;# 
   754  069A                     	;# 
   755  069B                     	;# 
   756  069C                     	;# 
   757  069D                     	;# 
   758  069E                     	;# 
   759  069F                     	;# 
   760  0E0F                     	;# 
   761  0E10                     	;# 
   762  0E11                     	;# 
   763  0E12                     	;# 
   764  0E13                     	;# 
   765  0E14                     	;# 
   766  0E15                     	;# 
   767  0E17                     	;# 
   768  0E20                     	;# 
   769  0E21                     	;# 
   770  0E22                     	;# 
   771  0E24                     	;# 
   772  0E25                     	;# 
   773  0E28                     	;# 
   774  0E29                     	;# 
   775  0E2A                     	;# 
   776  0E2B                     	;# 
   777  0E90                     	;# 
   778  0E91                     	;# 
   779  0E92                     	;# 
   780  0E94                     	;# 
   781  0E95                     	;# 
   782  0E9C                     	;# 
   783  0E9D                     	;# 
   784  0E9E                     	;# 
   785  0E9F                     	;# 
   786  0EA0                     	;# 
   787  0EA1                     	;# 
   788  0EA2                     	;# 
   789  0EA3                     	;# 
   790  0EA4                     	;# 
   791  0EA5                     	;# 
   792  0EA6                     	;# 
   793  0EA7                     	;# 
   794  0F0F                     	;# 
   795  0F10                     	;# 
   796  0F11                     	;# 
   797  0F12                     	;# 
   798  0F13                     	;# 
   799  0F14                     	;# 
   800  0F15                     	;# 
   801  0F16                     	;# 
   802  0F17                     	;# 
   803  0F18                     	;# 
   804  0F19                     	;# 
   805  0F1A                     	;# 
   806  0F1B                     	;# 
   807  0F1C                     	;# 
   808  0F1D                     	;# 
   809  0F1E                     	;# 
   810  0F1F                     	;# 
   811  0F20                     	;# 
   812  0F21                     	;# 
   813  0F22                     	;# 
   814  0F23                     	;# 
   815  0F24                     	;# 
   816  0F25                     	;# 
   817  0F26                     	;# 
   818  0F27                     	;# 
   819  0F28                     	;# 
   820  0F29                     	;# 
   821  0F2A                     	;# 
   822  0F2B                     	;# 
   823  0F2C                     	;# 
   824  0F2D                     	;# 
   825  0FE4                     	;# 
   826  0FE5                     	;# 
   827  0FE6                     	;# 
   828  0FE7                     	;# 
   829  0FE8                     	;# 
   830  0FE9                     	;# 
   831  0FEA                     	;# 
   832  0FEB                     	;# 
   833  0FED                     	;# 
   834  0FEE                     	;# 
   835  0FEF                     	;# 
   836  0000                     	;# 
   837  0001                     	;# 
   838  0002                     	;# 
   839  0003                     	;# 
   840  0004                     	;# 
   841  0005                     	;# 
   842  0006                     	;# 
   843  0007                     	;# 
   844  0008                     	;# 
   845  0009                     	;# 
   846  000A                     	;# 
   847  000B                     	;# 
   848  000C                     	;# 
   849  000D                     	;# 
   850  000E                     	;# 
   851  0011                     	;# 
   852  0012                     	;# 
   853  0013                     	;# 
   854  0015                     	;# 
   855  0016                     	;# 
   856  0016                     	;# 
   857  0017                     	;# 
   858  0018                     	;# 
   859  0019                     	;# 
   860  001A                     	;# 
   861  001B                     	;# 
   862  001C                     	;# 
   863  008C                     	;# 
   864  008D                     	;# 
   865  008E                     	;# 
   866  0091                     	;# 
   867  0092                     	;# 
   868  0093                     	;# 
   869  0095                     	;# 
   870  0096                     	;# 
   871  0097                     	;# 
   872  0098                     	;# 
   873  0099                     	;# 
   874  009A                     	;# 
   875  009B                     	;# 
   876  009B                     	;# 
   877  009C                     	;# 
   878  009D                     	;# 
   879  009E                     	;# 
   880  009F                     	;# 
   881  010C                     	;# 
   882  010D                     	;# 
   883  010E                     	;# 
   884  0111                     	;# 
   885  0112                     	;# 
   886  0113                     	;# 
   887  0114                     	;# 
   888  0115                     	;# 
   889  0116                     	;# 
   890  0117                     	;# 
   891  0118                     	;# 
   892  0119                     	;# 
   893  011C                     	;# 
   894  018C                     	;# 
   895  018D                     	;# 
   896  018E                     	;# 
   897  0191                     	;# 
   898  0191                     	;# 
   899  0192                     	;# 
   900  0193                     	;# 
   901  0193                     	;# 
   902  0194                     	;# 
   903  0195                     	;# 
   904  0196                     	;# 
   905  0199                     	;# 
   906  0199                     	;# 
   907  0199                     	;# 
   908  019A                     	;# 
   909  019A                     	;# 
   910  019A                     	;# 
   911  019B                     	;# 
   912  019B                     	;# 
   913  019B                     	;# 
   914  019B                     	;# 
   915  019B                     	;# 
   916  019C                     	;# 
   917  019C                     	;# 
   918  019C                     	;# 
   919  019D                     	;# 
   920  019D                     	;# 
   921  019D                     	;# 
   922  019E                     	;# 
   923  019E                     	;# 
   924  019E                     	;# 
   925  019F                     	;# 
   926  019F                     	;# 
   927  019F                     	;# 
   928  019F                     	;# 
   929  019F                     	;# 
   930  020C                     	;# 
   931  020D                     	;# 
   932  020E                     	;# 
   933  0211                     	;# 
   934  0211                     	;# 
   935  0212                     	;# 
   936  0212                     	;# 
   937  0213                     	;# 
   938  0213                     	;# 
   939  0214                     	;# 
   940  0214                     	;# 
   941  0215                     	;# 
   942  0215                     	;# 
   943  0215                     	;# 
   944  0215                     	;# 
   945  0216                     	;# 
   946  0216                     	;# 
   947  0217                     	;# 
   948  0217                     	;# 
   949  028C                     	;# 
   950  028D                     	;# 
   951  028E                     	;# 
   952  0291                     	;# 
   953  0291                     	;# 
   954  0292                     	;# 
   955  0293                     	;# 
   956  0293                     	;# 
   957  0298                     	;# 
   958  0298                     	;# 
   959  0299                     	;# 
   960  029A                     	;# 
   961  029A                     	;# 
   962  029E                     	;# 
   963  030C                     	;# 
   964  030D                     	;# 
   965  030E                     	;# 
   966  038C                     	;# 
   967  038D                     	;# 
   968  038E                     	;# 
   969  0391                     	;# 
   970  0392                     	;# 
   971  0393                     	;# 
   972  0394                     	;# 
   973  0395                     	;# 
   974  0396                     	;# 
   975  0397                     	;# 
   976  0398                     	;# 
   977  0399                     	;# 
   978  0415                     	;# 
   979  0416                     	;# 
   980  0417                     	;# 
   981  041C                     	;# 
   982  041D                     	;# 
   983  041E                     	;# 
   984  0511                     	;# 
   985  0515                     	;# 
   986  0617                     	;# 
   987  0618                     	;# 
   988  0619                     	;# 
   989  0619                     	;# 
   990  061A                     	;# 
   991  061B                     	;# 
   992  061C                     	;# 
   993  061C                     	;# 
   994  0691                     	;# 
   995  0692                     	;# 
   996  0693                     	;# 
   997  0694                     	;# 
   998  0695                     	;# 
   999  0696                     	;# 
  1000  0697                     	;# 
  1001  0698                     	;# 
  1002  0699                     	;# 
  1003  069A                     	;# 
  1004  069B                     	;# 
  1005  069C                     	;# 
  1006  069D                     	;# 
  1007  069E                     	;# 
  1008  069F                     	;# 
  1009  0E0F                     	;# 
  1010  0E10                     	;# 
  1011  0E11                     	;# 
  1012  0E12                     	;# 
  1013  0E13                     	;# 
  1014  0E14                     	;# 
  1015  0E15                     	;# 
  1016  0E17                     	;# 
  1017  0E20                     	;# 
  1018  0E21                     	;# 
  1019  0E22                     	;# 
  1020  0E24                     	;# 
  1021  0E25                     	;# 
  1022  0E28                     	;# 
  1023  0E29                     	;# 
  1024  0E2A                     	;# 
  1025  0E2B                     	;# 
  1026  0E90                     	;# 
  1027  0E91                     	;# 
  1028  0E92                     	;# 
  1029  0E94                     	;# 
  1030  0E95                     	;# 
  1031  0E9C                     	;# 
  1032  0E9D                     	;# 
  1033  0E9E                     	;# 
  1034  0E9F                     	;# 
  1035  0EA0                     	;# 
  1036  0EA1                     	;# 
  1037  0EA2                     	;# 
  1038  0EA3                     	;# 
  1039  0EA4                     	;# 
  1040  0EA5                     	;# 
  1041  0EA6                     	;# 
  1042  0EA7                     	;# 
  1043  0F0F                     	;# 
  1044  0F10                     	;# 
  1045  0F11                     	;# 
  1046  0F12                     	;# 
  1047  0F13                     	;# 
  1048  0F14                     	;# 
  1049  0F15                     	;# 
  1050  0F16                     	;# 
  1051  0F17                     	;# 
  1052  0F18                     	;# 
  1053  0F19                     	;# 
  1054  0F1A                     	;# 
  1055  0F1B                     	;# 
  1056  0F1C                     	;# 
  1057  0F1D                     	;# 
  1058  0F1E                     	;# 
  1059  0F1F                     	;# 
  1060  0F20                     	;# 
  1061  0F21                     	;# 
  1062  0F22                     	;# 
  1063  0F23                     	;# 
  1064  0F24                     	;# 
  1065  0F25                     	;# 
  1066  0F26                     	;# 
  1067  0F27                     	;# 
  1068  0F28                     	;# 
  1069  0F29                     	;# 
  1070  0F2A                     	;# 
  1071  0F2B                     	;# 
  1072  0F2C                     	;# 
  1073  0F2D                     	;# 
  1074  0FE4                     	;# 
  1075  0FE5                     	;# 
  1076  0FE6                     	;# 
  1077  0FE7                     	;# 
  1078  0FE8                     	;# 
  1079  0FE9                     	;# 
  1080  0FEA                     	;# 
  1081  0FEB                     	;# 
  1082  0FED                     	;# 
  1083  0FEE                     	;# 
  1084  0FEF                     	;# 
  1085  0000                     	;# 
  1086  0001                     	;# 
  1087  0002                     	;# 
  1088  0003                     	;# 
  1089  0004                     	;# 
  1090  0005                     	;# 
  1091  0006                     	;# 
  1092  0007                     	;# 
  1093  0008                     	;# 
  1094  0009                     	;# 
  1095  000A                     	;# 
  1096  000B                     	;# 
  1097  000C                     	;# 
  1098  000D                     	;# 
  1099  000E                     	;# 
  1100  0011                     	;# 
  1101  0012                     	;# 
  1102  0013                     	;# 
  1103  0015                     	;# 
  1104  0016                     	;# 
  1105  0016                     	;# 
  1106  0017                     	;# 
  1107  0018                     	;# 
  1108  0019                     	;# 
  1109  001A                     	;# 
  1110  001B                     	;# 
  1111  001C                     	;# 
  1112  008C                     	;# 
  1113  008D                     	;# 
  1114  008E                     	;# 
  1115  0091                     	;# 
  1116  0092                     	;# 
  1117  0093                     	;# 
  1118  0095                     	;# 
  1119  0096                     	;# 
  1120  0097                     	;# 
  1121  0098                     	;# 
  1122  0099                     	;# 
  1123  009A                     	;# 
  1124  009B                     	;# 
  1125  009B                     	;# 
  1126  009C                     	;# 
  1127  009D                     	;# 
  1128  009E                     	;# 
  1129  009F                     	;# 
  1130  010C                     	;# 
  1131  010D                     	;# 
  1132  010E                     	;# 
  1133  0111                     	;# 
  1134  0112                     	;# 
  1135  0113                     	;# 
  1136  0114                     	;# 
  1137  0115                     	;# 
  1138  0116                     	;# 
  1139  0117                     	;# 
  1140  0118                     	;# 
  1141  0119                     	;# 
  1142  011C                     	;# 
  1143  018C                     	;# 
  1144  018D                     	;# 
  1145  018E                     	;# 
  1146  0191                     	;# 
  1147  0191                     	;# 
  1148  0192                     	;# 
  1149  0193                     	;# 
  1150  0193                     	;# 
  1151  0194                     	;# 
  1152  0195                     	;# 
  1153  0196                     	;# 
  1154  0199                     	;# 
  1155  0199                     	;# 
  1156  0199                     	;# 
  1157  019A                     	;# 
  1158  019A                     	;# 
  1159  019A                     	;# 
  1160  019B                     	;# 
  1161  019B                     	;# 
  1162  019B                     	;# 
  1163  019B                     	;# 
  1164  019B                     	;# 
  1165  019C                     	;# 
  1166  019C                     	;# 
  1167  019C                     	;# 
  1168  019D                     	;# 
  1169  019D                     	;# 
  1170  019D                     	;# 
  1171  019E                     	;# 
  1172  019E                     	;# 
  1173  019E                     	;# 
  1174  019F                     	;# 
  1175  019F                     	;# 
  1176  019F                     	;# 
  1177  019F                     	;# 
  1178  019F                     	;# 
  1179  020C                     	;# 
  1180  020D                     	;# 
  1181  020E                     	;# 
  1182  0211                     	;# 
  1183  0211                     	;# 
  1184  0212                     	;# 
  1185  0212                     	;# 
  1186  0213                     	;# 
  1187  0213                     	;# 
  1188  0214                     	;# 
  1189  0214                     	;# 
  1190  0215                     	;# 
  1191  0215                     	;# 
  1192  0215                     	;# 
  1193  0215                     	;# 
  1194  0216                     	;# 
  1195  0216                     	;# 
  1196  0217                     	;# 
  1197  0217                     	;# 
  1198  028C                     	;# 
  1199  028D                     	;# 
  1200  028E                     	;# 
  1201  0291                     	;# 
  1202  0291                     	;# 
  1203  0292                     	;# 
  1204  0293                     	;# 
  1205  0293                     	;# 
  1206  0298                     	;# 
  1207  0298                     	;# 
  1208  0299                     	;# 
  1209  029A                     	;# 
  1210  029A                     	;# 
  1211  029E                     	;# 
  1212  030C                     	;# 
  1213  030D                     	;# 
  1214  030E                     	;# 
  1215  038C                     	;# 
  1216  038D                     	;# 
  1217  038E                     	;# 
  1218  0391                     	;# 
  1219  0392                     	;# 
  1220  0393                     	;# 
  1221  0394                     	;# 
  1222  0395                     	;# 
  1223  0396                     	;# 
  1224  0397                     	;# 
  1225  0398                     	;# 
  1226  0399                     	;# 
  1227  0415                     	;# 
  1228  0416                     	;# 
  1229  0417                     	;# 
  1230  041C                     	;# 
  1231  041D                     	;# 
  1232  041E                     	;# 
  1233  0511                     	;# 
  1234  0515                     	;# 
  1235  0617                     	;# 
  1236  0618                     	;# 
  1237  0619                     	;# 
  1238  0619                     	;# 
  1239  061A                     	;# 
  1240  061B                     	;# 
  1241  061C                     	;# 
  1242  061C                     	;# 
  1243  0691                     	;# 
  1244  0692                     	;# 
  1245  0693                     	;# 
  1246  0694                     	;# 
  1247  0695                     	;# 
  1248  0696                     	;# 
  1249  0697                     	;# 
  1250  0698                     	;# 
  1251  0699                     	;# 
  1252  069A                     	;# 
  1253  069B                     	;# 
  1254  069C                     	;# 
  1255  069D                     	;# 
  1256  069E                     	;# 
  1257  069F                     	;# 
  1258  0E0F                     	;# 
  1259  0E10                     	;# 
  1260  0E11                     	;# 
  1261  0E12                     	;# 
  1262  0E13                     	;# 
  1263  0E14                     	;# 
  1264  0E15                     	;# 
  1265  0E17                     	;# 
  1266  0E20                     	;# 
  1267  0E21                     	;# 
  1268  0E22                     	;# 
  1269  0E24                     	;# 
  1270  0E25                     	;# 
  1271  0E28                     	;# 
  1272  0E29                     	;# 
  1273  0E2A                     	;# 
  1274  0E2B                     	;# 
  1275  0E90                     	;# 
  1276  0E91                     	;# 
  1277  0E92                     	;# 
  1278  0E94                     	;# 
  1279  0E95                     	;# 
  1280  0E9C                     	;# 
  1281  0E9D                     	;# 
  1282  0E9E                     	;# 
  1283  0E9F                     	;# 
  1284  0EA0                     	;# 
  1285  0EA1                     	;# 
  1286  0EA2                     	;# 
  1287  0EA3                     	;# 
  1288  0EA4                     	;# 
  1289  0EA5                     	;# 
  1290  0EA6                     	;# 
  1291  0EA7                     	;# 
  1292  0F0F                     	;# 
  1293  0F10                     	;# 
  1294  0F11                     	;# 
  1295  0F12                     	;# 
  1296  0F13                     	;# 
  1297  0F14                     	;# 
  1298  0F15                     	;# 
  1299  0F16                     	;# 
  1300  0F17                     	;# 
  1301  0F18                     	;# 
  1302  0F19                     	;# 
  1303  0F1A                     	;# 
  1304  0F1B                     	;# 
  1305  0F1C                     	;# 
  1306  0F1D                     	;# 
  1307  0F1E                     	;# 
  1308  0F1F                     	;# 
  1309  0F20                     	;# 
  1310  0F21                     	;# 
  1311  0F22                     	;# 
  1312  0F23                     	;# 
  1313  0F24                     	;# 
  1314  0F25                     	;# 
  1315  0F26                     	;# 
  1316  0F27                     	;# 
  1317  0F28                     	;# 
  1318  0F29                     	;# 
  1319  0F2A                     	;# 
  1320  0F2B                     	;# 
  1321  0F2C                     	;# 
  1322  0F2D                     	;# 
  1323  0FE4                     	;# 
  1324  0FE5                     	;# 
  1325  0FE6                     	;# 
  1326  0FE7                     	;# 
  1327  0FE8                     	;# 
  1328  0FE9                     	;# 
  1329  0FEA                     	;# 
  1330  0FEB                     	;# 
  1331  0FED                     	;# 
  1332  0FEE                     	;# 
  1333  0FEF                     	;# 
  1334  0000                     	;# 
  1335  0001                     	;# 
  1336  0002                     	;# 
  1337  0003                     	;# 
  1338  0004                     	;# 
  1339  0005                     	;# 
  1340  0006                     	;# 
  1341  0007                     	;# 
  1342  0008                     	;# 
  1343  0009                     	;# 
  1344  000A                     	;# 
  1345  000B                     	;# 
  1346  000C                     	;# 
  1347  000D                     	;# 
  1348  000E                     	;# 
  1349  0011                     	;# 
  1350  0012                     	;# 
  1351  0013                     	;# 
  1352  0015                     	;# 
  1353  0016                     	;# 
  1354  0016                     	;# 
  1355  0017                     	;# 
  1356  0018                     	;# 
  1357  0019                     	;# 
  1358  001A                     	;# 
  1359  001B                     	;# 
  1360  001C                     	;# 
  1361  008C                     	;# 
  1362  008D                     	;# 
  1363  008E                     	;# 
  1364  0091                     	;# 
  1365  0092                     	;# 
  1366  0093                     	;# 
  1367  0095                     	;# 
  1368  0096                     	;# 
  1369  0097                     	;# 
  1370  0098                     	;# 
  1371  0099                     	;# 
  1372  009A                     	;# 
  1373  009B                     	;# 
  1374  009B                     	;# 
  1375  009C                     	;# 
  1376  009D                     	;# 
  1377  009E                     	;# 
  1378  009F                     	;# 
  1379  010C                     	;# 
  1380  010D                     	;# 
  1381  010E                     	;# 
  1382  0111                     	;# 
  1383  0112                     	;# 
  1384  0113                     	;# 
  1385  0114                     	;# 
  1386  0115                     	;# 
  1387  0116                     	;# 
  1388  0117                     	;# 
  1389  0118                     	;# 
  1390  0119                     	;# 
  1391  011C                     	;# 
  1392  018C                     	;# 
  1393  018D                     	;# 
  1394  018E                     	;# 
  1395  0191                     	;# 
  1396  0191                     	;# 
  1397  0192                     	;# 
  1398  0193                     	;# 
  1399  0193                     	;# 
  1400  0194                     	;# 
  1401  0195                     	;# 
  1402  0196                     	;# 
  1403  0199                     	;# 
  1404  0199                     	;# 
  1405  0199                     	;# 
  1406  019A                     	;# 
  1407  019A                     	;# 
  1408  019A                     	;# 
  1409  019B                     	;# 
  1410  019B                     	;# 
  1411  019B                     	;# 
  1412  019B                     	;# 
  1413  019B                     	;# 
  1414  019C                     	;# 
  1415  019C                     	;# 
  1416  019C                     	;# 
  1417  019D                     	;# 
  1418  019D                     	;# 
  1419  019D                     	;# 
  1420  019E                     	;# 
  1421  019E                     	;# 
  1422  019E                     	;# 
  1423  019F                     	;# 
  1424  019F                     	;# 
  1425  019F                     	;# 
  1426  019F                     	;# 
  1427  019F                     	;# 
  1428  020C                     	;# 
  1429  020D                     	;# 
  1430  020E                     	;# 
  1431  0211                     	;# 
  1432  0211                     	;# 
  1433  0212                     	;# 
  1434  0212                     	;# 
  1435  0213                     	;# 
  1436  0213                     	;# 
  1437  0214                     	;# 
  1438  0214                     	;# 
  1439  0215                     	;# 
  1440  0215                     	;# 
  1441  0215                     	;# 
  1442  0215                     	;# 
  1443  0216                     	;# 
  1444  0216                     	;# 
  1445  0217                     	;# 
  1446  0217                     	;# 
  1447  028C                     	;# 
  1448  028D                     	;# 
  1449  028E                     	;# 
  1450  0291                     	;# 
  1451  0291                     	;# 
  1452  0292                     	;# 
  1453  0293                     	;# 
  1454  0293                     	;# 
  1455  0298                     	;# 
  1456  0298                     	;# 
  1457  0299                     	;# 
  1458  029A                     	;# 
  1459  029A                     	;# 
  1460  029E                     	;# 
  1461  030C                     	;# 
  1462  030D                     	;# 
  1463  030E                     	;# 
  1464  038C                     	;# 
  1465  038D                     	;# 
  1466  038E                     	;# 
  1467  0391                     	;# 
  1468  0392                     	;# 
  1469  0393                     	;# 
  1470  0394                     	;# 
  1471  0395                     	;# 
  1472  0396                     	;# 
  1473  0397                     	;# 
  1474  0398                     	;# 
  1475  0399                     	;# 
  1476  0415                     	;# 
  1477  0416                     	;# 
  1478  0417                     	;# 
  1479  041C                     	;# 
  1480  041D                     	;# 
  1481  041E                     	;# 
  1482  0511                     	;# 
  1483  0515                     	;# 
  1484  0617                     	;# 
  1485  0618                     	;# 
  1486  0619                     	;# 
  1487  0619                     	;# 
  1488  061A                     	;# 
  1489  061B                     	;# 
  1490  061C                     	;# 
  1491  061C                     	;# 
  1492  0691                     	;# 
  1493  0692                     	;# 
  1494  0693                     	;# 
  1495  0694                     	;# 
  1496  0695                     	;# 
  1497  0696                     	;# 
  1498  0697                     	;# 
  1499  0698                     	;# 
  1500  0699                     	;# 
  1501  069A                     	;# 
  1502  069B                     	;# 
  1503  069C                     	;# 
  1504  069D                     	;# 
  1505  069E                     	;# 
  1506  069F                     	;# 
  1507  0E0F                     	;# 
  1508  0E10                     	;# 
  1509  0E11                     	;# 
  1510  0E12                     	;# 
  1511  0E13                     	;# 
  1512  0E14                     	;# 
  1513  0E15                     	;# 
  1514  0E17                     	;# 
  1515  0E20                     	;# 
  1516  0E21                     	;# 
  1517  0E22                     	;# 
  1518  0E24                     	;# 
  1519  0E25                     	;# 
  1520  0E28                     	;# 
  1521  0E29                     	;# 
  1522  0E2A                     	;# 
  1523  0E2B                     	;# 
  1524  0E90                     	;# 
  1525  0E91                     	;# 
  1526  0E92                     	;# 
  1527  0E94                     	;# 
  1528  0E95                     	;# 
  1529  0E9C                     	;# 
  1530  0E9D                     	;# 
  1531  0E9E                     	;# 
  1532  0E9F                     	;# 
  1533  0EA0                     	;# 
  1534  0EA1                     	;# 
  1535  0EA2                     	;# 
  1536  0EA3                     	;# 
  1537  0EA4                     	;# 
  1538  0EA5                     	;# 
  1539  0EA6                     	;# 
  1540  0EA7                     	;# 
  1541  0F0F                     	;# 
  1542  0F10                     	;# 
  1543  0F11                     	;# 
  1544  0F12                     	;# 
  1545  0F13                     	;# 
  1546  0F14                     	;# 
  1547  0F15                     	;# 
  1548  0F16                     	;# 
  1549  0F17                     	;# 
  1550  0F18                     	;# 
  1551  0F19                     	;# 
  1552  0F1A                     	;# 
  1553  0F1B                     	;# 
  1554  0F1C                     	;# 
  1555  0F1D                     	;# 
  1556  0F1E                     	;# 
  1557  0F1F                     	;# 
  1558  0F20                     	;# 
  1559  0F21                     	;# 
  1560  0F22                     	;# 
  1561  0F23                     	;# 
  1562  0F24                     	;# 
  1563  0F25                     	;# 
  1564  0F26                     	;# 
  1565  0F27                     	;# 
  1566  0F28                     	;# 
  1567  0F29                     	;# 
  1568  0F2A                     	;# 
  1569  0F2B                     	;# 
  1570  0F2C                     	;# 
  1571  0F2D                     	;# 
  1572  0FE4                     	;# 
  1573  0FE5                     	;# 
  1574  0FE6                     	;# 
  1575  0FE7                     	;# 
  1576  0FE8                     	;# 
  1577  0FE9                     	;# 
  1578  0FEA                     	;# 
  1579  0FEB                     	;# 
  1580  0FED                     	;# 
  1581  0FEE                     	;# 
  1582  0FEF                     	;# 
  1583  0000                     	;# 
  1584  0001                     	;# 
  1585  0002                     	;# 
  1586  0003                     	;# 
  1587  0004                     	;# 
  1588  0005                     	;# 
  1589  0006                     	;# 
  1590  0007                     	;# 
  1591  0008                     	;# 
  1592  0009                     	;# 
  1593  000A                     	;# 
  1594  000B                     	;# 
  1595  000C                     	;# 
  1596  000D                     	;# 
  1597  000E                     	;# 
  1598  0011                     	;# 
  1599  0012                     	;# 
  1600  0013                     	;# 
  1601  0015                     	;# 
  1602  0016                     	;# 
  1603  0016                     	;# 
  1604  0017                     	;# 
  1605  0018                     	;# 
  1606  0019                     	;# 
  1607  001A                     	;# 
  1608  001B                     	;# 
  1609  001C                     	;# 
  1610  008C                     	;# 
  1611  008D                     	;# 
  1612  008E                     	;# 
  1613  0091                     	;# 
  1614  0092                     	;# 
  1615  0093                     	;# 
  1616  0095                     	;# 
  1617  0096                     	;# 
  1618  0097                     	;# 
  1619  0098                     	;# 
  1620  0099                     	;# 
  1621  009A                     	;# 
  1622  009B                     	;# 
  1623  009B                     	;# 
  1624  009C                     	;# 
  1625  009D                     	;# 
  1626  009E                     	;# 
  1627  009F                     	;# 
  1628  010C                     	;# 
  1629  010D                     	;# 
  1630  010E                     	;# 
  1631  0111                     	;# 
  1632  0112                     	;# 
  1633  0113                     	;# 
  1634  0114                     	;# 
  1635  0115                     	;# 
  1636  0116                     	;# 
  1637  0117                     	;# 
  1638  0118                     	;# 
  1639  0119                     	;# 
  1640  011C                     	;# 
  1641  018C                     	;# 
  1642  018D                     	;# 
  1643  018E                     	;# 
  1644  0191                     	;# 
  1645  0191                     	;# 
  1646  0192                     	;# 
  1647  0193                     	;# 
  1648  0193                     	;# 
  1649  0194                     	;# 
  1650  0195                     	;# 
  1651  0196                     	;# 
  1652  0199                     	;# 
  1653  0199                     	;# 
  1654  0199                     	;# 
  1655  019A                     	;# 
  1656  019A                     	;# 
  1657  019A                     	;# 
  1658  019B                     	;# 
  1659  019B                     	;# 
  1660  019B                     	;# 
  1661  019B                     	;# 
  1662  019B                     	;# 
  1663  019C                     	;# 
  1664  019C                     	;# 
  1665  019C                     	;# 
  1666  019D                     	;# 
  1667  019D                     	;# 
  1668  019D                     	;# 
  1669  019E                     	;# 
  1670  019E                     	;# 
  1671  019E                     	;# 
  1672  019F                     	;# 
  1673  019F                     	;# 
  1674  019F                     	;# 
  1675  019F                     	;# 
  1676  019F                     	;# 
  1677  020C                     	;# 
  1678  020D                     	;# 
  1679  020E                     	;# 
  1680  0211                     	;# 
  1681  0211                     	;# 
  1682  0212                     	;# 
  1683  0212                     	;# 
  1684  0213                     	;# 
  1685  0213                     	;# 
  1686  0214                     	;# 
  1687  0214                     	;# 
  1688  0215                     	;# 
  1689  0215                     	;# 
  1690  0215                     	;# 
  1691  0215                     	;# 
  1692  0216                     	;# 
  1693  0216                     	;# 
  1694  0217                     	;# 
  1695  0217                     	;# 
  1696  028C                     	;# 
  1697  028D                     	;# 
  1698  028E                     	;# 
  1699  0291                     	;# 
  1700  0291                     	;# 
  1701  0292                     	;# 
  1702  0293                     	;# 
  1703  0293                     	;# 
  1704  0298                     	;# 
  1705  0298                     	;# 
  1706  0299                     	;# 
  1707  029A                     	;# 
  1708  029A                     	;# 
  1709  029E                     	;# 
  1710  030C                     	;# 
  1711  030D                     	;# 
  1712  030E                     	;# 
  1713  038C                     	;# 
  1714  038D                     	;# 
  1715  038E                     	;# 
  1716  0391                     	;# 
  1717  0392                     	;# 
  1718  0393                     	;# 
  1719  0394                     	;# 
  1720  0395                     	;# 
  1721  0396                     	;# 
  1722  0397                     	;# 
  1723  0398                     	;# 
  1724  0399                     	;# 
  1725  0415                     	;# 
  1726  0416                     	;# 
  1727  0417                     	;# 
  1728  041C                     	;# 
  1729  041D                     	;# 
  1730  041E                     	;# 
  1731  0511                     	;# 
  1732  0515                     	;# 
  1733  0617                     	;# 
  1734  0618                     	;# 
  1735  0619                     	;# 
  1736  0619                     	;# 
  1737  061A                     	;# 
  1738  061B                     	;# 
  1739  061C                     	;# 
  1740  061C                     	;# 
  1741  0691                     	;# 
  1742  0692                     	;# 
  1743  0693                     	;# 
  1744  0694                     	;# 
  1745  0695                     	;# 
  1746  0696                     	;# 
  1747  0697                     	;# 
  1748  0698                     	;# 
  1749  0699                     	;# 
  1750  069A                     	;# 
  1751  069B                     	;# 
  1752  069C                     	;# 
  1753  069D                     	;# 
  1754  069E                     	;# 
  1755  069F                     	;# 
  1756  0E0F                     	;# 
  1757  0E10                     	;# 
  1758  0E11                     	;# 
  1759  0E12                     	;# 
  1760  0E13                     	;# 
  1761  0E14                     	;# 
  1762  0E15                     	;# 
  1763  0E17                     	;# 
  1764  0E20                     	;# 
  1765  0E21                     	;# 
  1766  0E22                     	;# 
  1767  0E24                     	;# 
  1768  0E25                     	;# 
  1769  0E28                     	;# 
  1770  0E29                     	;# 
  1771  0E2A                     	;# 
  1772  0E2B                     	;# 
  1773  0E90                     	;# 
  1774  0E91                     	;# 
  1775  0E92                     	;# 
  1776  0E94                     	;# 
  1777  0E95                     	;# 
  1778  0E9C                     	;# 
  1779  0E9D                     	;# 
  1780  0E9E                     	;# 
  1781  0E9F                     	;# 
  1782  0EA0                     	;# 
  1783  0EA1                     	;# 
  1784  0EA2                     	;# 
  1785  0EA3                     	;# 
  1786  0EA4                     	;# 
  1787  0EA5                     	;# 
  1788  0EA6                     	;# 
  1789  0EA7                     	;# 
  1790  0F0F                     	;# 
  1791  0F10                     	;# 
  1792  0F11                     	;# 
  1793  0F12                     	;# 
  1794  0F13                     	;# 
  1795  0F14                     	;# 
  1796  0F15                     	;# 
  1797  0F16                     	;# 
  1798  0F17                     	;# 
  1799  0F18                     	;# 
  1800  0F19                     	;# 
  1801  0F1A                     	;# 
  1802  0F1B                     	;# 
  1803  0F1C                     	;# 
  1804  0F1D                     	;# 
  1805  0F1E                     	;# 
  1806  0F1F                     	;# 
  1807  0F20                     	;# 
  1808  0F21                     	;# 
  1809  0F22                     	;# 
  1810  0F23                     	;# 
  1811  0F24                     	;# 
  1812  0F25                     	;# 
  1813  0F26                     	;# 
  1814  0F27                     	;# 
  1815  0F28                     	;# 
  1816  0F29                     	;# 
  1817  0F2A                     	;# 
  1818  0F2B                     	;# 
  1819  0F2C                     	;# 
  1820  0F2D                     	;# 
  1821  0FE4                     	;# 
  1822  0FE5                     	;# 
  1823  0FE6                     	;# 
  1824  0FE7                     	;# 
  1825  0FE8                     	;# 
  1826  0FE9                     	;# 
  1827  0FEA                     	;# 
  1828  0FEB                     	;# 
  1829  0FED                     	;# 
  1830  0FEE                     	;# 
  1831  0FEF                     	;# 
  1832  0000                     	;# 
  1833  0001                     	;# 
  1834  0002                     	;# 
  1835  0003                     	;# 
  1836  0004                     	;# 
  1837  0005                     	;# 
  1838  0006                     	;# 
  1839  0007                     	;# 
  1840  0008                     	;# 
  1841  0009                     	;# 
  1842  000A                     	;# 
  1843  000B                     	;# 
  1844  000C                     	;# 
  1845  000D                     	;# 
  1846  000E                     	;# 
  1847  0011                     	;# 
  1848  0012                     	;# 
  1849  0013                     	;# 
  1850  0015                     	;# 
  1851  0016                     	;# 
  1852  0016                     	;# 
  1853  0017                     	;# 
  1854  0018                     	;# 
  1855  0019                     	;# 
  1856  001A                     	;# 
  1857  001B                     	;# 
  1858  001C                     	;# 
  1859  008C                     	;# 
  1860  008D                     	;# 
  1861  008E                     	;# 
  1862  0091                     	;# 
  1863  0092                     	;# 
  1864  0093                     	;# 
  1865  0095                     	;# 
  1866  0096                     	;# 
  1867  0097                     	;# 
  1868  0098                     	;# 
  1869  0099                     	;# 
  1870  009A                     	;# 
  1871  009B                     	;# 
  1872  009B                     	;# 
  1873  009C                     	;# 
  1874  009D                     	;# 
  1875  009E                     	;# 
  1876  009F                     	;# 
  1877  010C                     	;# 
  1878  010D                     	;# 
  1879  010E                     	;# 
  1880  0111                     	;# 
  1881  0112                     	;# 
  1882  0113                     	;# 
  1883  0114                     	;# 
  1884  0115                     	;# 
  1885  0116                     	;# 
  1886  0117                     	;# 
  1887  0118                     	;# 
  1888  0119                     	;# 
  1889  011C                     	;# 
  1890  018C                     	;# 
  1891  018D                     	;# 
  1892  018E                     	;# 
  1893  0191                     	;# 
  1894  0191                     	;# 
  1895  0192                     	;# 
  1896  0193                     	;# 
  1897  0193                     	;# 
  1898  0194                     	;# 
  1899  0195                     	;# 
  1900  0196                     	;# 
  1901  0199                     	;# 
  1902  0199                     	;# 
  1903  0199                     	;# 
  1904  019A                     	;# 
  1905  019A                     	;# 
  1906  019A                     	;# 
  1907  019B                     	;# 
  1908  019B                     	;# 
  1909  019B                     	;# 
  1910  019B                     	;# 
  1911  019B                     	;# 
  1912  019C                     	;# 
  1913  019C                     	;# 
  1914  019C                     	;# 
  1915  019D                     	;# 
  1916  019D                     	;# 
  1917  019D                     	;# 
  1918  019E                     	;# 
  1919  019E                     	;# 
  1920  019E                     	;# 
  1921  019F                     	;# 
  1922  019F                     	;# 
  1923  019F                     	;# 
  1924  019F                     	;# 
  1925  019F                     	;# 
  1926  020C                     	;# 
  1927  020D                     	;# 
  1928  020E                     	;# 
  1929  0211                     	;# 
  1930  0211                     	;# 
  1931  0212                     	;# 
  1932  0212                     	;# 
  1933  0213                     	;# 
  1934  0213                     	;# 
  1935  0214                     	;# 
  1936  0214                     	;# 
  1937  0215                     	;# 
  1938  0215                     	;# 
  1939  0215                     	;# 
  1940  0215                     	;# 
  1941  0216                     	;# 
  1942  0216                     	;# 
  1943  0217                     	;# 
  1944  0217                     	;# 
  1945  028C                     	;# 
  1946  028D                     	;# 
  1947  028E                     	;# 
  1948  0291                     	;# 
  1949  0291                     	;# 
  1950  0292                     	;# 
  1951  0293                     	;# 
  1952  0293                     	;# 
  1953  0298                     	;# 
  1954  0298                     	;# 
  1955  0299                     	;# 
  1956  029A                     	;# 
  1957  029A                     	;# 
  1958  029E                     	;# 
  1959  030C                     	;# 
  1960  030D                     	;# 
  1961  030E                     	;# 
  1962  038C                     	;# 
  1963  038D                     	;# 
  1964  038E                     	;# 
  1965  0391                     	;# 
  1966  0392                     	;# 
  1967  0393                     	;# 
  1968  0394                     	;# 
  1969  0395                     	;# 
  1970  0396                     	;# 
  1971  0397                     	;# 
  1972  0398                     	;# 
  1973  0399                     	;# 
  1974  0415                     	;# 
  1975  0416                     	;# 
  1976  0417                     	;# 
  1977  041C                     	;# 
  1978  041D                     	;# 
  1979  041E                     	;# 
  1980  0511                     	;# 
  1981  0515                     	;# 
  1982  0617                     	;# 
  1983  0618                     	;# 
  1984  0619                     	;# 
  1985  0619                     	;# 
  1986  061A                     	;# 
  1987  061B                     	;# 
  1988  061C                     	;# 
  1989  061C                     	;# 
  1990  0691                     	;# 
  1991  0692                     	;# 
  1992  0693                     	;# 
  1993  0694                     	;# 
  1994  0695                     	;# 
  1995  0696                     	;# 
  1996  0697                     	;# 
  1997  0698                     	;# 
  1998  0699                     	;# 
  1999  069A                     	;# 
  2000  069B                     	;# 
  2001  069C                     	;# 
  2002  069D                     	;# 
  2003  069E                     	;# 
  2004  069F                     	;# 
  2005  0E0F                     	;# 
  2006  0E10                     	;# 
  2007  0E11                     	;# 
  2008  0E12                     	;# 
  2009  0E13                     	;# 
  2010  0E14                     	;# 
  2011  0E15                     	;# 
  2012  0E17                     	;# 
  2013  0E20                     	;# 
  2014  0E21                     	;# 
  2015  0E22                     	;# 
  2016  0E24                     	;# 
  2017  0E25                     	;# 
  2018  0E28                     	;# 
  2019  0E29                     	;# 
  2020  0E2A                     	;# 
  2021  0E2B                     	;# 
  2022  0E90                     	;# 
  2023  0E91                     	;# 
  2024  0E92                     	;# 
  2025  0E94                     	;# 
  2026  0E95                     	;# 
  2027  0E9C                     	;# 
  2028  0E9D                     	;# 
  2029  0E9E                     	;# 
  2030  0E9F                     	;# 
  2031  0EA0                     	;# 
  2032  0EA1                     	;# 
  2033  0EA2                     	;# 
  2034  0EA3                     	;# 
  2035  0EA4                     	;# 
  2036  0EA5                     	;# 
  2037  0EA6                     	;# 
  2038  0EA7                     	;# 
  2039  0F0F                     	;# 
  2040  0F10                     	;# 
  2041  0F11                     	;# 
  2042  0F12                     	;# 
  2043  0F13                     	;# 
  2044  0F14                     	;# 
  2045  0F15                     	;# 
  2046  0F16                     	;# 
  2047  0F17                     	;# 
  2048  0F18                     	;# 
  2049  0F19                     	;# 
  2050  0F1A                     	;# 
  2051  0F1B                     	;# 
  2052  0F1C                     	;# 
  2053  0F1D                     	;# 
  2054  0F1E                     	;# 
  2055  0F1F                     	;# 
  2056  0F20                     	;# 
  2057  0F21                     	;# 
  2058  0F22                     	;# 
  2059  0F23                     	;# 
  2060  0F24                     	;# 
  2061  0F25                     	;# 
  2062  0F26                     	;# 
  2063  0F27                     	;# 
  2064  0F28                     	;# 
  2065  0F29                     	;# 
  2066  0F2A                     	;# 
  2067  0F2B                     	;# 
  2068  0F2C                     	;# 
  2069  0F2D                     	;# 
  2070  0FE4                     	;# 
  2071  0FE5                     	;# 
  2072  0FE6                     	;# 
  2073  0FE7                     	;# 
  2074  0FE8                     	;# 
  2075  0FE9                     	;# 
  2076  0FEA                     	;# 
  2077  0FEB                     	;# 
  2078  0FED                     	;# 
  2079  0FEE                     	;# 
  2080  0FEF                     	;# 
  2081  0000                     	;# 
  2082  0001                     	;# 
  2083  0002                     	;# 
  2084  0003                     	;# 
  2085  0004                     	;# 
  2086  0005                     	;# 
  2087  0006                     	;# 
  2088  0007                     	;# 
  2089  0008                     	;# 
  2090  0009                     	;# 
  2091  000A                     	;# 
  2092  000B                     	;# 
  2093  000C                     	;# 
  2094  000D                     	;# 
  2095  000E                     	;# 
  2096  0011                     	;# 
  2097  0012                     	;# 
  2098  0013                     	;# 
  2099  0015                     	;# 
  2100  0016                     	;# 
  2101  0016                     	;# 
  2102  0017                     	;# 
  2103  0018                     	;# 
  2104  0019                     	;# 
  2105  001A                     	;# 
  2106  001B                     	;# 
  2107  001C                     	;# 
  2108  008C                     	;# 
  2109  008D                     	;# 
  2110  008E                     	;# 
  2111  0091                     	;# 
  2112  0092                     	;# 
  2113  0093                     	;# 
  2114  0095                     	;# 
  2115  0096                     	;# 
  2116  0097                     	;# 
  2117  0098                     	;# 
  2118  0099                     	;# 
  2119  009A                     	;# 
  2120  009B                     	;# 
  2121  009B                     	;# 
  2122  009C                     	;# 
  2123  009D                     	;# 
  2124  009E                     	;# 
  2125  009F                     	;# 
  2126  010C                     	;# 
  2127  010D                     	;# 
  2128  010E                     	;# 
  2129  0111                     	;# 
  2130  0112                     	;# 
  2131  0113                     	;# 
  2132  0114                     	;# 
  2133  0115                     	;# 
  2134  0116                     	;# 
  2135  0117                     	;# 
  2136  0118                     	;# 
  2137  0119                     	;# 
  2138  011C                     	;# 
  2139  018C                     	;# 
  2140  018D                     	;# 
  2141  018E                     	;# 
  2142  0191                     	;# 
  2143  0191                     	;# 
  2144  0192                     	;# 
  2145  0193                     	;# 
  2146  0193                     	;# 
  2147  0194                     	;# 
  2148  0195                     	;# 
  2149  0196                     	;# 
  2150  0199                     	;# 
  2151  0199                     	;# 
  2152  0199                     	;# 
  2153  019A                     	;# 
  2154  019A                     	;# 
  2155  019A                     	;# 
  2156  019B                     	;# 
  2157  019B                     	;# 
  2158  019B                     	;# 
  2159  019B                     	;# 
  2160  019B                     	;# 
  2161  019C                     	;# 
  2162  019C                     	;# 
  2163  019C                     	;# 
  2164  019D                     	;# 
  2165  019D                     	;# 
  2166  019D                     	;# 
  2167  019E                     	;# 
  2168  019E                     	;# 
  2169  019E                     	;# 
  2170  019F                     	;# 
  2171  019F                     	;# 
  2172  019F                     	;# 
  2173  019F                     	;# 
  2174  019F                     	;# 
  2175  020C                     	;# 
  2176  020D                     	;# 
  2177  020E                     	;# 
  2178  0211                     	;# 
  2179  0211                     	;# 
  2180  0212                     	;# 
  2181  0212                     	;# 
  2182  0213                     	;# 
  2183  0213                     	;# 
  2184  0214                     	;# 
  2185  0214                     	;# 
  2186  0215                     	;# 
  2187  0215                     	;# 
  2188  0215                     	;# 
  2189  0215                     	;# 
  2190  0216                     	;# 
  2191  0216                     	;# 
  2192  0217                     	;# 
  2193  0217                     	;# 
  2194  028C                     	;# 
  2195  028D                     	;# 
  2196  028E                     	;# 
  2197  0291                     	;# 
  2198  0291                     	;# 
  2199  0292                     	;# 
  2200  0293                     	;# 
  2201  0293                     	;# 
  2202  0298                     	;# 
  2203  0298                     	;# 
  2204  0299                     	;# 
  2205  029A                     	;# 
  2206  029A                     	;# 
  2207  029E                     	;# 
  2208  030C                     	;# 
  2209  030D                     	;# 
  2210  030E                     	;# 
  2211  038C                     	;# 
  2212  038D                     	;# 
  2213  038E                     	;# 
  2214  0391                     	;# 
  2215  0392                     	;# 
  2216  0393                     	;# 
  2217  0394                     	;# 
  2218  0395                     	;# 
  2219  0396                     	;# 
  2220  0397                     	;# 
  2221  0398                     	;# 
  2222  0399                     	;# 
  2223  0415                     	;# 
  2224  0416                     	;# 
  2225  0417                     	;# 
  2226  041C                     	;# 
  2227  041D                     	;# 
  2228  041E                     	;# 
  2229  0511                     	;# 
  2230  0515                     	;# 
  2231  0617                     	;# 
  2232  0618                     	;# 
  2233  0619                     	;# 
  2234  0619                     	;# 
  2235  061A                     	;# 
  2236  061B                     	;# 
  2237  061C                     	;# 
  2238  061C                     	;# 
  2239  0691                     	;# 
  2240  0692                     	;# 
  2241  0693                     	;# 
  2242  0694                     	;# 
  2243  0695                     	;# 
  2244  0696                     	;# 
  2245  0697                     	;# 
  2246  0698                     	;# 
  2247  0699                     	;# 
  2248  069A                     	;# 
  2249  069B                     	;# 
  2250  069C                     	;# 
  2251  069D                     	;# 
  2252  069E                     	;# 
  2253  069F                     	;# 
  2254  0E0F                     	;# 
  2255  0E10                     	;# 
  2256  0E11                     	;# 
  2257  0E12                     	;# 
  2258  0E13                     	;# 
  2259  0E14                     	;# 
  2260  0E15                     	;# 
  2261  0E17                     	;# 
  2262  0E20                     	;# 
  2263  0E21                     	;# 
  2264  0E22                     	;# 
  2265  0E24                     	;# 
  2266  0E25                     	;# 
  2267  0E28                     	;# 
  2268  0E29                     	;# 
  2269  0E2A                     	;# 
  2270  0E2B                     	;# 
  2271  0E90                     	;# 
  2272  0E91                     	;# 
  2273  0E92                     	;# 
  2274  0E94                     	;# 
  2275  0E95                     	;# 
  2276  0E9C                     	;# 
  2277  0E9D                     	;# 
  2278  0E9E                     	;# 
  2279  0E9F                     	;# 
  2280  0EA0                     	;# 
  2281  0EA1                     	;# 
  2282  0EA2                     	;# 
  2283  0EA3                     	;# 
  2284  0EA4                     	;# 
  2285  0EA5                     	;# 
  2286  0EA6                     	;# 
  2287  0EA7                     	;# 
  2288  0F0F                     	;# 
  2289  0F10                     	;# 
  2290  0F11                     	;# 
  2291  0F12                     	;# 
  2292  0F13                     	;# 
  2293  0F14                     	;# 
  2294  0F15                     	;# 
  2295  0F16                     	;# 
  2296  0F17                     	;# 
  2297  0F18                     	;# 
  2298  0F19                     	;# 
  2299  0F1A                     	;# 
  2300  0F1B                     	;# 
  2301  0F1C                     	;# 
  2302  0F1D                     	;# 
  2303  0F1E                     	;# 
  2304  0F1F                     	;# 
  2305  0F20                     	;# 
  2306  0F21                     	;# 
  2307  0F22                     	;# 
  2308  0F23                     	;# 
  2309  0F24                     	;# 
  2310  0F25                     	;# 
  2311  0F26                     	;# 
  2312  0F27                     	;# 
  2313  0F28                     	;# 
  2314  0F29                     	;# 
  2315  0F2A                     	;# 
  2316  0F2B                     	;# 
  2317  0F2C                     	;# 
  2318  0F2D                     	;# 
  2319  0FE4                     	;# 
  2320  0FE5                     	;# 
  2321  0FE6                     	;# 
  2322  0FE7                     	;# 
  2323  0FE8                     	;# 
  2324  0FE9                     	;# 
  2325  0FEA                     	;# 
  2326  0FEB                     	;# 
  2327  0FED                     	;# 
  2328  0FEE                     	;# 
  2329  0FEF                     	;# 
  2330  0000                     	;# 
  2331  0001                     	;# 
  2332  0002                     	;# 
  2333  0003                     	;# 
  2334  0004                     	;# 
  2335  0005                     	;# 
  2336  0006                     	;# 
  2337  0007                     	;# 
  2338  0008                     	;# 
  2339  0009                     	;# 
  2340  000A                     	;# 
  2341  000B                     	;# 
  2342  000C                     	;# 
  2343  000D                     	;# 
  2344  000E                     	;# 
  2345  0011                     	;# 
  2346  0012                     	;# 
  2347  0013                     	;# 
  2348  0015                     	;# 
  2349  0016                     	;# 
  2350  0016                     	;# 
  2351  0017                     	;# 
  2352  0018                     	;# 
  2353  0019                     	;# 
  2354  001A                     	;# 
  2355  001B                     	;# 
  2356  001C                     	;# 
  2357  008C                     	;# 
  2358  008D                     	;# 
  2359  008E                     	;# 
  2360  0091                     	;# 
  2361  0092                     	;# 
  2362  0093                     	;# 
  2363  0095                     	;# 
  2364  0096                     	;# 
  2365  0097                     	;# 
  2366  0098                     	;# 
  2367  0099                     	;# 
  2368  009A                     	;# 
  2369  009B                     	;# 
  2370  009B                     	;# 
  2371  009C                     	;# 
  2372  009D                     	;# 
  2373  009E                     	;# 
  2374  009F                     	;# 
  2375  010C                     	;# 
  2376  010D                     	;# 
  2377  010E                     	;# 
  2378  0111                     	;# 
  2379  0112                     	;# 
  2380  0113                     	;# 
  2381  0114                     	;# 
  2382  0115                     	;# 
  2383  0116                     	;# 
  2384  0117                     	;# 
  2385  0118                     	;# 
  2386  0119                     	;# 
  2387  011C                     	;# 
  2388  018C                     	;# 
  2389  018D                     	;# 
  2390  018E                     	;# 
  2391  0191                     	;# 
  2392  0191                     	;# 
  2393  0192                     	;# 
  2394  0193                     	;# 
  2395  0193                     	;# 
  2396  0194                     	;# 
  2397  0195                     	;# 
  2398  0196                     	;# 
  2399  0199                     	;# 
  2400  0199                     	;# 
  2401  0199                     	;# 
  2402  019A                     	;# 
  2403  019A                     	;# 
  2404  019A                     	;# 
  2405  019B                     	;# 
  2406  019B                     	;# 
  2407  019B                     	;# 
  2408  019B                     	;# 
  2409  019B                     	;# 
  2410  019C                     	;# 
  2411  019C                     	;# 
  2412  019C                     	;# 
  2413  019D                     	;# 
  2414  019D                     	;# 
  2415  019D                     	;# 
  2416  019E                     	;# 
  2417  019E                     	;# 
  2418  019E                     	;# 
  2419  019F                     	;# 
  2420  019F                     	;# 
  2421  019F                     	;# 
  2422  019F                     	;# 
  2423  019F                     	;# 
  2424  020C                     	;# 
  2425  020D                     	;# 
  2426  020E                     	;# 
  2427  0211                     	;# 
  2428  0211                     	;# 
  2429  0212                     	;# 
  2430  0212                     	;# 
  2431  0213                     	;# 
  2432  0213                     	;# 
  2433  0214                     	;# 
  2434  0214                     	;# 
  2435  0215                     	;# 
  2436  0215                     	;# 
  2437  0215                     	;# 
  2438  0215                     	;# 
  2439  0216                     	;# 
  2440  0216                     	;# 
  2441  0217                     	;# 
  2442  0217                     	;# 
  2443  028C                     	;# 
  2444  028D                     	;# 
  2445  028E                     	;# 
  2446  0291                     	;# 
  2447  0291                     	;# 
  2448  0292                     	;# 
  2449  0293                     	;# 
  2450  0293                     	;# 
  2451  0298                     	;# 
  2452  0298                     	;# 
  2453  0299                     	;# 
  2454  029A                     	;# 
  2455  029A                     	;# 
  2456  029E                     	;# 
  2457  030C                     	;# 
  2458  030D                     	;# 
  2459  030E                     	;# 
  2460  038C                     	;# 
  2461  038D                     	;# 
  2462  038E                     	;# 
  2463  0391                     	;# 
  2464  0392                     	;# 
  2465  0393                     	;# 
  2466  0394                     	;# 
  2467  0395                     	;# 
  2468  0396                     	;# 
  2469  0397                     	;# 
  2470  0398                     	;# 
  2471  0399                     	;# 
  2472  0415                     	;# 
  2473  0416                     	;# 
  2474  0417                     	;# 
  2475  041C                     	;# 
  2476  041D                     	;# 
  2477  041E                     	;# 
  2478  0511                     	;# 
  2479  0515                     	;# 
  2480  0617                     	;# 
  2481  0618                     	;# 
  2482  0619                     	;# 
  2483  0619                     	;# 
  2484  061A                     	;# 
  2485  061B                     	;# 
  2486  061C                     	;# 
  2487  061C                     	;# 
  2488  0691                     	;# 
  2489  0692                     	;# 
  2490  0693                     	;# 
  2491  0694                     	;# 
  2492  0695                     	;# 
  2493  0696                     	;# 
  2494  0697                     	;# 
  2495  0698                     	;# 
  2496  0699                     	;# 
  2497  069A                     	;# 
  2498  069B                     	;# 
  2499  069C                     	;# 
  2500  069D                     	;# 
  2501  069E                     	;# 
  2502  069F                     	;# 
  2503  0E0F                     	;# 
  2504  0E10                     	;# 
  2505  0E11                     	;# 
  2506  0E12                     	;# 
  2507  0E13                     	;# 
  2508  0E14                     	;# 
  2509  0E15                     	;# 
  2510  0E17                     	;# 
  2511  0E20                     	;# 
  2512  0E21                     	;# 
  2513  0E22                     	;# 
  2514  0E24                     	;# 
  2515  0E25                     	;# 
  2516  0E28                     	;# 
  2517  0E29                     	;# 
  2518  0E2A                     	;# 
  2519  0E2B                     	;# 
  2520  0E90                     	;# 
  2521  0E91                     	;# 
  2522  0E92                     	;# 
  2523  0E94                     	;# 
  2524  0E95                     	;# 
  2525  0E9C                     	;# 
  2526  0E9D                     	;# 
  2527  0E9E                     	;# 
  2528  0E9F                     	;# 
  2529  0EA0                     	;# 
  2530  0EA1                     	;# 
  2531  0EA2                     	;# 
  2532  0EA3                     	;# 
  2533  0EA4                     	;# 
  2534  0EA5                     	;# 
  2535  0EA6                     	;# 
  2536  0EA7                     	;# 
  2537  0F0F                     	;# 
  2538  0F10                     	;# 
  2539  0F11                     	;# 
  2540  0F12                     	;# 
  2541  0F13                     	;# 
  2542  0F14                     	;# 
  2543  0F15                     	;# 
  2544  0F16                     	;# 
  2545  0F17                     	;# 
  2546  0F18                     	;# 
  2547  0F19                     	;# 
  2548  0F1A                     	;# 
  2549  0F1B                     	;# 
  2550  0F1C                     	;# 
  2551  0F1D                     	;# 
  2552  0F1E                     	;# 
  2553  0F1F                     	;# 
  2554  0F20                     	;# 
  2555  0F21                     	;# 
  2556  0F22                     	;# 
  2557  0F23                     	;# 
  2558  0F24                     	;# 
  2559  0F25                     	;# 
  2560  0F26                     	;# 
  2561  0F27                     	;# 
  2562  0F28                     	;# 
  2563  0F29                     	;# 
  2564  0F2A                     	;# 
  2565  0F2B                     	;# 
  2566  0F2C                     	;# 
  2567  0F2D                     	;# 
  2568  0FE4                     	;# 
  2569  0FE5                     	;# 
  2570  0FE6                     	;# 
  2571  0FE7                     	;# 
  2572  0FE8                     	;# 
  2573  0FE9                     	;# 
  2574  0FEA                     	;# 
  2575  0FEB                     	;# 
  2576  0FED                     	;# 
  2577  0FEE                     	;# 
  2578  0FEF                     	;# 
  2579  0000                     	;# 
  2580  0001                     	;# 
  2581  0002                     	;# 
  2582  0003                     	;# 
  2583  0004                     	;# 
  2584  0005                     	;# 
  2585  0006                     	;# 
  2586  0007                     	;# 
  2587  0008                     	;# 
  2588  0009                     	;# 
  2589  000A                     	;# 
  2590  000B                     	;# 
  2591  000C                     	;# 
  2592  000D                     	;# 
  2593  000E                     	;# 
  2594  0011                     	;# 
  2595  0012                     	;# 
  2596  0013                     	;# 
  2597  0015                     	;# 
  2598  0016                     	;# 
  2599  0016                     	;# 
  2600  0017                     	;# 
  2601  0018                     	;# 
  2602  0019                     	;# 
  2603  001A                     	;# 
  2604  001B                     	;# 
  2605  001C                     	;# 
  2606  008C                     	;# 
  2607  008D                     	;# 
  2608  008E                     	;# 
  2609  0091                     	;# 
  2610  0092                     	;# 
  2611  0093                     	;# 
  2612  0095                     	;# 
  2613  0096                     	;# 
  2614  0097                     	;# 
  2615  0098                     	;# 
  2616  0099                     	;# 
  2617  009A                     	;# 
  2618  009B                     	;# 
  2619  009B                     	;# 
  2620  009C                     	;# 
  2621  009D                     	;# 
  2622  009E                     	;# 
  2623  009F                     	;# 
  2624  010C                     	;# 
  2625  010D                     	;# 
  2626  010E                     	;# 
  2627  0111                     	;# 
  2628  0112                     	;# 
  2629  0113                     	;# 
  2630  0114                     	;# 
  2631  0115                     	;# 
  2632  0116                     	;# 
  2633  0117                     	;# 
  2634  0118                     	;# 
  2635  0119                     	;# 
  2636  011C                     	;# 
  2637  018C                     	;# 
  2638  018D                     	;# 
  2639  018E                     	;# 
  2640  0191                     	;# 
  2641  0191                     	;# 
  2642  0192                     	;# 
  2643  0193                     	;# 
  2644  0193                     	;# 
  2645  0194                     	;# 
  2646  0195                     	;# 
  2647  0196                     	;# 
  2648  0199                     	;# 
  2649  0199                     	;# 
  2650  0199                     	;# 
  2651  019A                     	;# 
  2652  019A                     	;# 
  2653  019A                     	;# 
  2654  019B                     	;# 
  2655  019B                     	;# 
  2656  019B                     	;# 
  2657  019B                     	;# 
  2658  019B                     	;# 
  2659  019C                     	;# 
  2660  019C                     	;# 
  2661  019C                     	;# 
  2662  019D                     	;# 
  2663  019D                     	;# 
  2664  019D                     	;# 
  2665  019E                     	;# 
  2666  019E                     	;# 
  2667  019E                     	;# 
  2668  019F                     	;# 
  2669  019F                     	;# 
  2670  019F                     	;# 
  2671  019F                     	;# 
  2672  019F                     	;# 
  2673  020C                     	;# 
  2674  020D                     	;# 
  2675  020E                     	;# 
  2676  0211                     	;# 
  2677  0211                     	;# 
  2678  0212                     	;# 
  2679  0212                     	;# 
  2680  0213                     	;# 
  2681  0213                     	;# 
  2682  0214                     	;# 
  2683  0214                     	;# 
  2684  0215                     	;# 
  2685  0215                     	;# 
  2686  0215                     	;# 
  2687  0215                     	;# 
  2688  0216                     	;# 
  2689  0216                     	;# 
  2690  0217                     	;# 
  2691  0217                     	;# 
  2692  028C                     	;# 
  2693  028D                     	;# 
  2694  028E                     	;# 
  2695  0291                     	;# 
  2696  0291                     	;# 
  2697  0292                     	;# 
  2698  0293                     	;# 
  2699  0293                     	;# 
  2700  0298                     	;# 
  2701  0298                     	;# 
  2702  0299                     	;# 
  2703  029A                     	;# 
  2704  029A                     	;# 
  2705  029E                     	;# 
  2706  030C                     	;# 
  2707  030D                     	;# 
  2708  030E                     	;# 
  2709  038C                     	;# 
  2710  038D                     	;# 
  2711  038E                     	;# 
  2712  0391                     	;# 
  2713  0392                     	;# 
  2714  0393                     	;# 
  2715  0394                     	;# 
  2716  0395                     	;# 
  2717  0396                     	;# 
  2718  0397                     	;# 
  2719  0398                     	;# 
  2720  0399                     	;# 
  2721  0415                     	;# 
  2722  0416                     	;# 
  2723  0417                     	;# 
  2724  041C                     	;# 
  2725  041D                     	;# 
  2726  041E                     	;# 
  2727  0511                     	;# 
  2728  0515                     	;# 
  2729  0617                     	;# 
  2730  0618                     	;# 
  2731  0619                     	;# 
  2732  0619                     	;# 
  2733  061A                     	;# 
  2734  061B                     	;# 
  2735  061C                     	;# 
  2736  061C                     	;# 
  2737  0691                     	;# 
  2738  0692                     	;# 
  2739  0693                     	;# 
  2740  0694                     	;# 
  2741  0695                     	;# 
  2742  0696                     	;# 
  2743  0697                     	;# 
  2744  0698                     	;# 
  2745  0699                     	;# 
  2746  069A                     	;# 
  2747  069B                     	;# 
  2748  069C                     	;# 
  2749  069D                     	;# 
  2750  069E                     	;# 
  2751  069F                     	;# 
  2752  0E0F                     	;# 
  2753  0E10                     	;# 
  2754  0E11                     	;# 
  2755  0E12                     	;# 
  2756  0E13                     	;# 
  2757  0E14                     	;# 
  2758  0E15                     	;# 
  2759  0E17                     	;# 
  2760  0E20                     	;# 
  2761  0E21                     	;# 
  2762  0E22                     	;# 
  2763  0E24                     	;# 
  2764  0E25                     	;# 
  2765  0E28                     	;# 
  2766  0E29                     	;# 
  2767  0E2A                     	;# 
  2768  0E2B                     	;# 
  2769  0E90                     	;# 
  2770  0E91                     	;# 
  2771  0E92                     	;# 
  2772  0E94                     	;# 
  2773  0E95                     	;# 
  2774  0E9C                     	;# 
  2775  0E9D                     	;# 
  2776  0E9E                     	;# 
  2777  0E9F                     	;# 
  2778  0EA0                     	;# 
  2779  0EA1                     	;# 
  2780  0EA2                     	;# 
  2781  0EA3                     	;# 
  2782  0EA4                     	;# 
  2783  0EA5                     	;# 
  2784  0EA6                     	;# 
  2785  0EA7                     	;# 
  2786  0F0F                     	;# 
  2787  0F10                     	;# 
  2788  0F11                     	;# 
  2789  0F12                     	;# 
  2790  0F13                     	;# 
  2791  0F14                     	;# 
  2792  0F15                     	;# 
  2793  0F16                     	;# 
  2794  0F17                     	;# 
  2795  0F18                     	;# 
  2796  0F19                     	;# 
  2797  0F1A                     	;# 
  2798  0F1B                     	;# 
  2799  0F1C                     	;# 
  2800  0F1D                     	;# 
  2801  0F1E                     	;# 
  2802  0F1F                     	;# 
  2803  0F20                     	;# 
  2804  0F21                     	;# 
  2805  0F22                     	;# 
  2806  0F23                     	;# 
  2807  0F24                     	;# 
  2808  0F25                     	;# 
  2809  0F26                     	;# 
  2810  0F27                     	;# 
  2811  0F28                     	;# 
  2812  0F29                     	;# 
  2813  0F2A                     	;# 
  2814  0F2B                     	;# 
  2815  0F2C                     	;# 
  2816  0F2D                     	;# 
  2817  0FE4                     	;# 
  2818  0FE5                     	;# 
  2819  0FE6                     	;# 
  2820  0FE7                     	;# 
  2821  0FE8                     	;# 
  2822  0FE9                     	;# 
  2823  0FEA                     	;# 
  2824  0FEB                     	;# 
  2825  0FED                     	;# 
  2826  0FEE                     	;# 
  2827  0FEF                     	;# 
  2828                           
  2829 ;; Function _EUSART_DefaultFramingErrorHandler is unused but had its address taken
  2830  0000                     
  2831 ;; Function _EUSART_DefaultOverrunErrorHandler is unused but had its address taken
  2832  0000                     
  2833 ;; Function _EUSART_DefaultErrorHandler is unused but had its address taken
  2834  0000                     
  2835                           	psect	stringtext1
  2836  0541                     __pstringtext1:
  2837  0541                     _dpowers:
  2838  0541  3401               	retlw	1
  2839  0542  3400               	retlw	0
  2840  0543  340A               	retlw	10
  2841  0544  3400               	retlw	0
  2842  0545  3464               	retlw	100
  2843  0546  3400               	retlw	0
  2844  0547  34E8               	retlw	232
  2845  0548  3403               	retlw	3
  2846  0549  3410               	retlw	16
  2847  054A  3427               	retlw	39
  2848  054B                     __end_of_dpowers:
  2849                           
  2850                           	psect	nvBANK0
  2851  004D                     __pnvBANK0:
  2852  004D                     _INT_InterruptHandler:
  2853  004D                     	ds	2
  2854  004F                     _EUSART_ErrorHandler:
  2855  004F                     	ds	2
  2856  0051                     _EUSART_OverrunErrorHandler:
  2857  0051                     	ds	2
  2858  0053                     _EUSART_FramingErrorHandler:
  2859  0053                     	ds	2
  2860  001C                     _T2CONbits	set	28
  2861  001C                     _T2CON	set	28
  2862  001A                     _TMR2	set	26
  2863  001B                     _PR2	set	27
  2864  0015                     _TMR0	set	21
  2865  0011                     _PIR1bits	set	17
  2866  000B                     _INTCONbits	set	11
  2867  009D                     _ADCON0bits	set	157
  2868  009E                     _ADCON1	set	158
  2869  009D                     _ADCON0	set	157
  2870  0095                     _OPTION_REG	set	149
  2871  0095                     _OPTION_REGbits	set	149
  2872  008E                     _TRISC	set	142
  2873  008D                     _TRISB	set	141
  2874  008C                     _TRISA	set	140
  2875  0097                     _WDTCON	set	151
  2876  0098                     _OSCTUNE	set	152
  2877  009A                     _OSCSTAT	set	154
  2878  0099                     _OSCCON	set	153
  2879  009B                     _ADRES	set	155
  2880  0117                     _FVRCONbits	set	279
  2881  0117                     _FVRCON	set	279
  2882  010E                     _LATC	set	270
  2883  010D                     _LATB	set	269
  2884  010C                     _LATA	set	268
  2885  0116                     _BORCON	set	278
  2886  0119                     _DAC1CON1	set	281
  2887  0118                     _DAC1CON0	set	280
  2888  019A                     _TX1REG	set	410
  2889  0199                     _RC1REG	set	409
  2890  019D                     _RC1STAbits	set	413
  2891  019E                     _TX1STAbits	set	414
  2892  019C                     _SP1BRGH	set	412
  2893  019B                     _SP1BRGL	set	411
  2894  019E                     _TX1STA	set	414
  2895  019D                     _RC1STA	set	413
  2896  019F                     _BAUD1CON	set	415
  2897  018C                     _ANSELA	set	396
  2898  018D                     _ANSELB	set	397
  2899  018E                     _ANSELC	set	398
  2900  020E                     _WPUC	set	526
  2901  020C                     _WPUA	set	524
  2902  020D                     _WPUB	set	525
  2903  0291                     _CCPR1L	set	657
  2904  0293                     _CCP1CONbits	set	659
  2905  029E                     _CCPTMRSbits	set	670
  2906  028E                     _ODCONC	set	654
  2907  028D                     _ODCONB	set	653
  2908  028C                     _ODCONA	set	652
  2909  030E                     _SLRCONC	set	782
  2910  030D                     _SLRCONB	set	781
  2911  030C                     _SLRCONA	set	780
  2912  038E                     _INLVLC	set	910
  2913  038D                     _INLVLB	set	909
  2914  038C                     _INLVLA	set	908
  2915  0515                     _OPA2CON	set	1301
  2916  0511                     _OPA1CON	set	1297
  2917  061C                     _PWM4CONbits	set	1564
  2918  061A                     _PWM4DCLbits	set	1562
  2919  061B                     _PWM4DCH	set	1563
  2920  0619                     _PWM3CONbits	set	1561
  2921  0617                     _PWM3DCLbits	set	1559
  2922  0618                     _PWM3DCH	set	1560
  2923  0E24                     _RXPPS	set	3620
  2924  0E10                     _INTPPS	set	3600
  2925  0EA5                     _RC5PPS	set	3749
  2926  0E95                     _RA5PPS	set	3733
  2927  0EA4                     _RC4PPS	set	3748
  2928  0E9F                     _RB7PPS	set	3743
  2929                           
  2930                           	psect	stringtext2
  2931  0506                     __pstringtext2:
  2932  0506                     STR_1:
  2933  0506  340A               	retlw	10
  2934  0507  3420               	retlw	32	;' '
  2935  0508  3446               	retlw	70	;'F'
  2936  0509  3472               	retlw	114	;'r'
  2937  050A  3465               	retlw	101	;'e'
  2938  050B  3471               	retlw	113	;'q'
  2939  050C  3475               	retlw	117	;'u'
  2940  050D  3465               	retlw	101	;'e'
  2941  050E  346E               	retlw	110	;'n'
  2942  050F  3463               	retlw	99	;'c'
  2943  0510  3479               	retlw	121	;'y'
  2944  0511  3420               	retlw	32	;' '
  2945  0512  3473               	retlw	115	;'s'
  2946  0513  3465               	retlw	101	;'e'
  2947  0514  346C               	retlw	108	;'l'
  2948  0515  3465               	retlw	101	;'e'
  2949  0516  3463               	retlw	99	;'c'
  2950  0517  3474               	retlw	116	;'t'
  2951  0518  3465               	retlw	101	;'e'
  2952  0519  3464               	retlw	100	;'d'
  2953  051A  3400               	retlw	0
  2954                           
  2955                           	psect	stringtext3
  2956  051B                     __pstringtext3:
  2957  051B                     STR_4:
  2958  051B  340A               	retlw	10
  2959  051C  3420               	retlw	32	;' '
  2960  051D  3472               	retlw	114	;'r'
  2961  051E  3465               	retlw	101	;'e'
  2962  051F  3473               	retlw	115	;'s'
  2963  0520  3465               	retlw	101	;'e'
  2964  0521  3474               	retlw	116	;'t'
  2965  0522  3420               	retlw	32	;' '
  2966  0523  3473               	retlw	115	;'s'
  2967  0524  3465               	retlw	101	;'e'
  2968  0525  346C               	retlw	108	;'l'
  2969  0526  3465               	retlw	101	;'e'
  2970  0527  3463               	retlw	99	;'c'
  2971  0528  3474               	retlw	116	;'t'
  2972  0529  3400               	retlw	0
  2973                           
  2974                           	psect	stringtext4
  2975  0596                     __pstringtext4:
  2976  0596                     STR_2:
  2977  0596  3425               	retlw	37	;'%'
  2978  0597  3464               	retlw	100	;'d'
  2979  0598  340A               	retlw	10
  2980  0599  3400               	retlw	0
  2981                           
  2982                           	psect	stringtext5
  2983  0000                     __pstringtext5:
  2984  0596                     
  2985                           	psect	cinit
  2986  0016                     start_initialization:	
  2987                           ; #config settings
  2988                           
  2989  0016                     __initialization:
  2990                           
  2991                           ; Clear objects allocated to COMMON
  2992  0016  01F0               	clrf	__pbssCOMMON& (0+127)
  2993  0017  01F1               	clrf	(__pbssCOMMON+1)& (0+127)
  2994  0018  01F2               	clrf	(__pbssCOMMON+2)& (0+127)
  2995  0019  01F3               	clrf	(__pbssCOMMON+3)& (0+127)
  2996  001A  01F4               	clrf	(__pbssCOMMON+4)& (0+127)
  2997  001B  01F5               	clrf	(__pbssCOMMON+5)& (0+127)
  2998  001C  01F6               	clrf	(__pbssCOMMON+6)& (0+127)
  2999                           
  3000                           ; Clear objects allocated to BANK0
  3001  001D  303F               	movlw	low __pbssBANK0
  3002  001E  0084               	movwf	4
  3003  001F  3000               	movlw	high __pbssBANK0
  3004  0020  0085               	movwf	5
  3005  0021  300E               	movlw	14
  3006  0022  3185  256D  3180   	fcall	clear_ram0
  3007                           
  3008                           ; Clear objects allocated to BANK1
  3009  0025  30A0               	movlw	low __pbssBANK1
  3010  0026  0084               	movwf	4
  3011  0027  3000               	movlw	high __pbssBANK1
  3012  0028  0085               	movwf	5
  3013  0029  3021               	movlw	33
  3014  002A  3185  256D         	fcall	clear_ram0
  3015  002C                     end_of_initialization:	
  3016                           ;End of C runtime variable initialization code
  3017                           
  3018  002C                     __end_of__initialization:
  3019  002C  107E               	bcf	int$flags,0	;clear compiler interrupt flag (level 1)
  3020  002D  0020               	movlb	0
  3021  002E  3183  2BC9         	ljmp	_main	;jump to C main() function
  3022                           
  3023                           	psect	bssCOMMON
  3024  0070                     __pbssCOMMON:
  3025  0070                     _timer0ReloadVal:
  3026  0070                     	ds	1
  3027  0071                     _ir_code:
  3028  0071                     	ds	6
  3029                           
  3030                           	psect	bssBANK0
  3031  003F                     __pbssBANK0:
  3032  003F                     _Vdd_mv:
  3033  003F                     	ds	2
  3034  0041                     _microamps:
  3035  0041                     	ds	2
  3036  0043                     _current:
  3037  0043                     	ds	1
  3038  0044                     _duty:
  3039  0044                     	ds	1
  3040  0045                     _frequency:
  3041  0045                     	ds	1
  3042  0046                     _flag:
  3043  0046                     	ds	1
  3044  0047                     _LED_blue:
  3045  0047                     	ds	1
  3046  0048                     _LED_green:
  3047  0048                     	ds	1
  3048  0049                     _LED_red:
  3049  0049                     	ds	1
  3050  004A                     _eusartRxLastError:
  3051  004A                     	ds	1
  3052  004B                     _Vdac_mv:
  3053  004B                     	ds	2
  3054                           
  3055                           	psect	bssBANK1
  3056  00A0                     __pbssBANK1:
  3057  00A0                     _stats:
  3058  00A0                     	ds	33
  3059                           
  3060                           	psect	clrtext
  3061  056D                     clear_ram0:	
  3062                           ;	Called with FSR0 containing the base address, and
  3063                           ;	WREG with the size to clear
  3064                           
  3065  056D  0064               	clrwdt	;clear the watchdog before getting into this loop
  3066  056E                     clrloop0:
  3067  056E  0180               	clrf	0	;clear RAM location pointed to by FSR
  3068  056F  3101               	addfsr 0,1
  3069  0570  0B89               	decfsz	9,f	;Have we reached the end of clearing yet?
  3070  0571  2D6E               	goto	clrloop0	;have we reached the end yet?
  3071  0572  3400               	retlw	0	;all done for this memory range, return
  3072                           
  3073                           	psect	cstackCOMMON
  3074  0077                     __pcstackCOMMON:
  3075  0077                     ?_PIN_MANAGER_Initialize:
  3076  0077                     ?_OSCILLATOR_Initialize:	
  3077                           ; 1 bytes @ 0x0
  3078                           
  3079  0077                     ?_WDT_Initialize:	
  3080                           ; 1 bytes @ 0x0
  3081                           
  3082  0077                     ?_OPA1_Initialize:	
  3083                           ; 1 bytes @ 0x0
  3084                           
  3085  0077                     ?_OPA2_Initialize:	
  3086                           ; 1 bytes @ 0x0
  3087                           
  3088  0077                     ?_TMR2_Initialize:	
  3089                           ; 1 bytes @ 0x0
  3090                           
  3091  0077                     ?_EXT_INT_Initialize:	
  3092                           ; 1 bytes @ 0x0
  3093                           
  3094  0077                     ?_TMR0_Initialize:	
  3095                           ; 1 bytes @ 0x0
  3096                           
  3097  0077                     ?_EUSART_Initialize:	
  3098                           ; 1 bytes @ 0x0
  3099                           
  3100  0077                     ?_INT_ISR:	
  3101                           ; 1 bytes @ 0x0
  3102                           
  3103  0077                     ?_INT_CallBack:	
  3104                           ; 1 bytes @ 0x0
  3105                           
  3106  0077                     ?_DAC_Initialize:	
  3107                           ; 1 bytes @ 0x0
  3108                           
  3109  0077                     ?_SYSTEM_Initialize:	
  3110                           ; 1 bytes @ 0x0
  3111                           
  3112  0077                     ?_PIN_MANAGER_IOC:	
  3113                           ; 1 bytes @ 0x0
  3114                           
  3115  0077                     ??_PIN_MANAGER_IOC:	
  3116                           ; 1 bytes @ 0x0
  3117                           
  3118  0077                     ?_INTERRUPT_InterruptManager:	
  3119                           ; 1 bytes @ 0x0
  3120                           
  3121  0077                     ?_EUSART_Write:	
  3122                           ; 1 bytes @ 0x0
  3123                           
  3124  0077                     ?_putch:	
  3125                           ; 1 bytes @ 0x0
  3126                           
  3127  0077                     ?_INT_DefaultInterruptHandler:	
  3128                           ; 1 bytes @ 0x0
  3129                           
  3130  0077                     ??_INT_DefaultInterruptHandler:	
  3131                           ; 1 bytes @ 0x0
  3132                           
  3133  0077                     ?_initLED:	
  3134                           ; 1 bytes @ 0x0
  3135                           
  3136  0077                     ?_lowBattery:	
  3137                           ; 1 bytes @ 0x0
  3138                           
  3139  0077                     ?_startUp:	
  3140                           ; 1 bytes @ 0x0
  3141                           
  3142  0077                     ?_selectSomething:	
  3143                           ; 1 bytes @ 0x0
  3144                           
  3145  0077                     ?_selectFrequency:	
  3146                           ; 1 bytes @ 0x0
  3147                           
  3148  0077                     ?_process_remote_command:	
  3149                           ; 1 bytes @ 0x0
  3150                           
  3151  0077                     ?_main:	
  3152                           ; 1 bytes @ 0x0
  3153                           
  3154                           
  3155                           ; 1 bytes @ 0x0
  3156  0077                     	ds	1
  3157  0078                     INT_DefaultInterruptHandler@time:
  3158                           
  3159                           ; 1 bytes @ 0x1
  3160  0078                     	ds	1
  3161  0079                     ??_PIN_MANAGER_Initialize:
  3162  0079                     ??_OSCILLATOR_Initialize:	
  3163                           ; 1 bytes @ 0x2
  3164                           
  3165  0079                     ??_WDT_Initialize:	
  3166                           ; 1 bytes @ 0x2
  3167                           
  3168  0079                     ??_OPA1_Initialize:	
  3169                           ; 1 bytes @ 0x2
  3170                           
  3171  0079                     ??_OPA2_Initialize:	
  3172                           ; 1 bytes @ 0x2
  3173                           
  3174  0079                     ??_TMR2_Initialize:	
  3175                           ; 1 bytes @ 0x2
  3176                           
  3177  0079                     ??_EXT_INT_Initialize:	
  3178                           ; 1 bytes @ 0x2
  3179                           
  3180  0079                     ??_TMR0_Initialize:	
  3181                           ; 1 bytes @ 0x2
  3182                           
  3183  0079                     ??_EUSART_Initialize:	
  3184                           ; 1 bytes @ 0x2
  3185                           
  3186  0079                     ??_INT_ISR:	
  3187                           ; 1 bytes @ 0x2
  3188                           
  3189  0079                     ??_EUSART_SetFramingErrorHandler:	
  3190                           ; 1 bytes @ 0x2
  3191                           
  3192  0079                     ??_EUSART_SetOverrunErrorHandler:	
  3193                           ; 1 bytes @ 0x2
  3194                           
  3195  0079                     ??_EUSART_SetErrorHandler:	
  3196                           ; 1 bytes @ 0x2
  3197                           
  3198  0079                     ??_INT_CallBack:	
  3199                           ; 1 bytes @ 0x2
  3200                           
  3201  0079                     ??_DAC_Initialize:	
  3202                           ; 1 bytes @ 0x2
  3203                           
  3204  0079                     ??_SYSTEM_Initialize:	
  3205                           ; 1 bytes @ 0x2
  3206                           
  3207  0079                     ??_INTERRUPT_InterruptManager:	
  3208                           ; 1 bytes @ 0x2
  3209                           
  3210  0079                     ??_EUSART_Write:	
  3211                           ; 1 bytes @ 0x2
  3212                           
  3213  0079                     ??_INT_SetInterruptHandler:	
  3214                           ; 1 bytes @ 0x2
  3215                           
  3216  0079                     ??_initLED:	
  3217                           ; 1 bytes @ 0x2
  3218                           
  3219  0079                     ??_setLEDColor:	
  3220                           ; 1 bytes @ 0x2
  3221                           
  3222  0079                     ??___aldiv:	
  3223                           ; 1 bytes @ 0x2
  3224                           
  3225  0079                     ??___lwdiv:	
  3226                           ; 1 bytes @ 0x2
  3227                           
  3228  0079                     EUSART_Write@txData:	
  3229                           ; 1 bytes @ 0x2
  3230                           
  3231                           
  3232                           ; 1 bytes @ 0x2
  3233  0079                     	ds	1
  3234  007A                     ??_putch:
  3235  007A                     ??_battery_voltage:	
  3236                           ; 1 bytes @ 0x3
  3237                           
  3238  007A                     ??___lwmod:	
  3239                           ; 1 bytes @ 0x3
  3240                           
  3241  007A                     putch@txData:	
  3242                           ; 1 bytes @ 0x3
  3243                           
  3244  007A                     setLEDColor@red:	
  3245                           ; 1 bytes @ 0x3
  3246                           
  3247                           
  3248                           ; 1 bytes @ 0x3
  3249  007A                     	ds	1
  3250  007B                     ??_startUp:
  3251  007B                     ___lwmod@counter:	
  3252                           ; 1 bytes @ 0x4
  3253                           
  3254                           
  3255                           ; 1 bytes @ 0x4
  3256  007B                     	ds	1
  3257                           
  3258                           	psect	cstackBANK0
  3259  0020                     __pcstackBANK0:
  3260  0020                     ?_EUSART_SetFramingErrorHandler:
  3261  0020                     ?_EUSART_SetOverrunErrorHandler:	
  3262                           ; 1 bytes @ 0x0
  3263                           
  3264  0020                     ?_EUSART_SetErrorHandler:	
  3265                           ; 1 bytes @ 0x0
  3266                           
  3267  0020                     ?_INT_SetInterruptHandler:	
  3268                           ; 1 bytes @ 0x0
  3269                           
  3270  0020                     ?_setLEDColor:	
  3271                           ; 1 bytes @ 0x0
  3272                           
  3273  0020                     ?___lwdiv:	
  3274                           ; 1 bytes @ 0x0
  3275                           
  3276  0020                     ?___aldiv:	
  3277                           ; 2 bytes @ 0x0
  3278                           
  3279  0020                     setLEDColor@green:	
  3280                           ; 4 bytes @ 0x0
  3281                           
  3282  0020                     EUSART_SetFramingErrorHandler@interruptHandler:	
  3283                           ; 1 bytes @ 0x0
  3284                           
  3285  0020                     EUSART_SetOverrunErrorHandler@interruptHandler:	
  3286                           ; 2 bytes @ 0x0
  3287                           
  3288  0020                     EUSART_SetErrorHandler@interruptHandler:	
  3289                           ; 2 bytes @ 0x0
  3290                           
  3291  0020                     INT_SetInterruptHandler@InterruptHandler:	
  3292                           ; 2 bytes @ 0x0
  3293                           
  3294  0020                     ___lwdiv@divisor:	
  3295                           ; 2 bytes @ 0x0
  3296                           
  3297  0020                     ___aldiv@divisor:	
  3298                           ; 2 bytes @ 0x0
  3299                           
  3300                           
  3301                           ; 4 bytes @ 0x0
  3302  0020                     	ds	1
  3303  0021                     setLEDColor@blue:
  3304                           
  3305                           ; 1 bytes @ 0x1
  3306  0021                     	ds	1
  3307  0022                     ??_lowBattery:
  3308  0022                     ??_selectSomething:	
  3309                           ; 1 bytes @ 0x2
  3310                           
  3311  0022                     startUp@i:	
  3312                           ; 1 bytes @ 0x2
  3313                           
  3314  0022                     ___lwdiv@dividend:	
  3315                           ; 2 bytes @ 0x2
  3316                           
  3317                           
  3318                           ; 2 bytes @ 0x2
  3319  0022                     	ds	2
  3320  0024                     ___lwdiv@counter:
  3321  0024                     ___aldiv@dividend:	
  3322                           ; 1 bytes @ 0x4
  3323                           
  3324                           
  3325                           ; 4 bytes @ 0x4
  3326  0024                     	ds	1
  3327  0025                     ___lwdiv@quotient:
  3328                           
  3329                           ; 2 bytes @ 0x5
  3330  0025                     	ds	2
  3331  0027                     ?___lwmod:
  3332  0027                     ___lwmod@divisor:	
  3333                           ; 2 bytes @ 0x7
  3334                           
  3335                           
  3336                           ; 2 bytes @ 0x7
  3337  0027                     	ds	1
  3338  0028                     ___aldiv@counter:
  3339                           
  3340                           ; 1 bytes @ 0x8
  3341  0028                     	ds	1
  3342  0029                     ___aldiv@sign:
  3343  0029                     ___lwmod@dividend:	
  3344                           ; 1 bytes @ 0x9
  3345                           
  3346                           
  3347                           ; 2 bytes @ 0x9
  3348  0029                     	ds	1
  3349  002A                     ___aldiv@quotient:
  3350                           
  3351                           ; 4 bytes @ 0xA
  3352  002A                     	ds	1
  3353  002B                     ?_printf:
  3354  002B                     printf@f:	
  3355                           ; 2 bytes @ 0xB
  3356                           
  3357                           
  3358                           ; 2 bytes @ 0xB
  3359  002B                     	ds	3
  3360  002E                     ?_battery_voltage:
  3361                           
  3362                           ; 2 bytes @ 0xE
  3363  002E                     	ds	1
  3364  002F                     ??_printf:
  3365                           
  3366                           ; 1 bytes @ 0xF
  3367  002F                     	ds	4
  3368  0033                     printf@ap:
  3369                           
  3370                           ; 1 bytes @ 0x13
  3371  0033                     	ds	1
  3372  0034                     printf@flag:
  3373                           
  3374                           ; 1 bytes @ 0x14
  3375  0034                     	ds	1
  3376  0035                     printf@prec:
  3377                           
  3378                           ; 1 bytes @ 0x15
  3379  0035                     	ds	1
  3380  0036                     printf@val:
  3381                           
  3382                           ; 2 bytes @ 0x16
  3383  0036                     	ds	2
  3384  0038                     printf@c:
  3385                           
  3386                           ; 1 bytes @ 0x18
  3387  0038                     	ds	1
  3388  0039                     ??_selectFrequency:
  3389                           
  3390                           ; 1 bytes @ 0x19
  3391  0039                     	ds	2
  3392  003B                     ??_process_remote_command:
  3393                           
  3394                           ; 1 bytes @ 0x1B
  3395  003B                     	ds	2
  3396  003D                     process_remote_command@code:
  3397                           
  3398                           ; 1 bytes @ 0x1D
  3399  003D                     	ds	1
  3400  003E                     ??_main:
  3401                           
  3402                           ; 1 bytes @ 0x1E
  3403  003E                     	ds	1
  3404                           
  3405                           	psect	maintext
  3406  03C9                     __pmaintext:	
  3407 ;;
  3408 ;;Main: autosize = 0, tempsize = 1, incstack = 0, save=0
  3409 ;;
  3410 ;; *************** function _main *****************
  3411 ;; Defined at:
  3412 ;;		line 316 in file "main.c"
  3413 ;; Parameters:    Size  Location     Type
  3414 ;;		None
  3415 ;; Auto vars:     Size  Location     Type
  3416 ;;		None
  3417 ;; Return value:  Size  Location     Type
  3418 ;;                  1    wreg      void 
  3419 ;; Registers used:
  3420 ;;		wreg, fsr0l, fsr0h, fsr1l, fsr1h, status,2, status,0, pclath, cstack
  3421 ;; Tracked objects:
  3422 ;;		On entry : B1F/0
  3423 ;;		On exit  : 0/0
  3424 ;;		Unchanged: 0/0
  3425 ;; Data sizes:     COMMON   BANK0   BANK1   BANK2   BANK3   BANK4   BANK5   BANK6
  3426 ;;      Params:         0       0       0       0       0       0       0       0
  3427 ;;      Locals:         0       0       0       0       0       0       0       0
  3428 ;;      Temps:          0       1       0       0       0       0       0       0
  3429 ;;      Totals:         0       1       0       0       0       0       0       0
  3430 ;;Total ram usage:        1 bytes
  3431 ;; Hardware stack levels required when called:    9
  3432 ;; This function calls:
  3433 ;;		_DAC_Initialize
  3434 ;;		_OPA1_Initialize
  3435 ;;		_OPA2_Initialize
  3436 ;;		_SYSTEM_Initialize
  3437 ;;		_battery_voltage
  3438 ;;		_initLED
  3439 ;;		_lowBattery
  3440 ;;		_process_remote_command
  3441 ;;		_startUp
  3442 ;; This function is called by:
  3443 ;;		Startup code after reset
  3444 ;; This function uses a non-reentrant model
  3445 ;;
  3446                           
  3447                           
  3448                           ;psect for function _main
  3449  03C9                     _main:
  3450                           
  3451                           ;main.c: 319: SYSTEM_Initialize();
  3452                           
  3453                           ;incstack = 0
  3454                           ; Regs used in _main: [wreg-fsr1h+status,2+status,0+pclath+cstack]
  3455  03C9  3184  24CF  3183   	fcall	_SYSTEM_Initialize
  3456                           
  3457                           ;main.c: 320: DAC_Initialize();
  3458  03CC  3185  258B  3183   	fcall	_DAC_Initialize
  3459                           
  3460                           ;main.c: 321: OPA1_Initialize();
  3461  03CF  3185  25A2  3183   	fcall	_OPA1_Initialize
  3462                           
  3463                           ;main.c: 322: OPA2_Initialize();
  3464  03D2  3185  259E  3183   	fcall	_OPA2_Initialize
  3465                           
  3466                           ;main.c: 323: initLED();
  3467  03D5  3182  22EA  3183   	fcall	_initLED
  3468                           
  3469                           ;main.c: 324: (INTCONbits.GIE = 1);
  3470  03D8  178B               	bsf	11,7	;volatile
  3471                           
  3472                           ;main.c: 325: (INTCONbits.PEIE = 1);
  3473  03D9  170B               	bsf	11,6	;volatile
  3474                           
  3475                           ;main.c: 326: startUp();
  3476  03DA  3183  232E  3183   	fcall	_startUp
  3477  03DD                     l485:	
  3478                           ;main.c: 337: while(1){
  3479                           
  3480                           
  3481                           ;main.c: 339: if ((int)battery_voltage() < 2500)
  3482  03DD  3184  2428  3183   	fcall	_battery_voltage
  3483  03E0  0020               	movlb	0	; select bank0
  3484  03E1  082F               	movf	?_battery_voltage+1,w
  3485  03E2  3A80               	xorlw	128
  3486  03E3  00BE               	movwf	??_main
  3487  03E4  3089               	movlw	137
  3488  03E5  023E               	subwf	??_main,w
  3489  03E6  1D03               	skipz
  3490  03E7  2BEA               	goto	u1895
  3491  03E8  30C4               	movlw	196
  3492  03E9  022E               	subwf	?_battery_voltage,w
  3493  03EA                     u1895:
  3494  03EA  1803               	skipnc
  3495  03EB  2BEF               	goto	l2471
  3496                           
  3497                           ;main.c: 340: {;main.c: 341: lowBattery();
  3498  03EC  3183  23F9  3183   	fcall	_lowBattery
  3499  03EF                     l2471:
  3500                           
  3501                           ;main.c: 343: };main.c: 349: if (STATE_DONE == ir_code.state){
  3502  03EF  3002               	movlw	2
  3503  03F0  0672               	xorwf	_ir_code+1,w
  3504  03F1  1D03               	btfss	3,2
  3505  03F2  2BDD               	goto	l485
  3506                           
  3507                           ;main.c: 367: process_remote_command(&ir_code);
  3508  03F3  3071               	movlw	(low (_ir_code| 0))& (0+255)
  3509  03F4  3180  2030  3183   	fcall	_process_remote_command
  3510                           
  3511                           ;main.c: 370: ir_code.state = STATE_RESET;
  3512  03F7  01F2               	clrf	_ir_code+1
  3513  03F8  2BDD               	goto	l485
  3514  03F9                     __end_of_main:
  3515                           
  3516                           	psect	text1
  3517  032E                     __ptext1:	
  3518 ;; *************** function _startUp *****************
  3519 ;; Defined at:
  3520 ;;		line 168 in file "main.c"
  3521 ;; Parameters:    Size  Location     Type
  3522 ;;		None
  3523 ;; Auto vars:     Size  Location     Type
  3524 ;;  i               2    2[BANK0 ] int 
  3525 ;; Return value:  Size  Location     Type
  3526 ;;                  1    wreg      void 
  3527 ;; Registers used:
  3528 ;;		wreg, status,2, status,0, pclath, cstack
  3529 ;; Tracked objects:
  3530 ;;		On entry : 0/0
  3531 ;;		On exit  : 0/0
  3532 ;;		Unchanged: 0/0
  3533 ;; Data sizes:     COMMON   BANK0   BANK1   BANK2   BANK3   BANK4   BANK5   BANK6
  3534 ;;      Params:         0       0       0       0       0       0       0       0
  3535 ;;      Locals:         0       2       0       0       0       0       0       0
  3536 ;;      Temps:          1       0       0       0       0       0       0       0
  3537 ;;      Totals:         1       2       0       0       0       0       0       0
  3538 ;;Total ram usage:        3 bytes
  3539 ;; Hardware stack levels used:    1
  3540 ;; Hardware stack levels required when called:    5
  3541 ;; This function calls:
  3542 ;;		_setLEDColor
  3543 ;; This function is called by:
  3544 ;;		_main
  3545 ;; This function uses a non-reentrant model
  3546 ;;
  3547                           
  3548                           
  3549                           ;psect for function _startUp
  3550  032E                     _startUp:
  3551                           
  3552                           ;main.c: 169: for (int i = 0; i < 5; i++){
  3553                           
  3554                           ;incstack = 0
  3555                           ; Regs used in _startUp: [wreg+status,2+status,0+pclath+cstack]
  3556  032E  0020               	movlb	0	; select bank0
  3557  032F  01A2               	clrf	startUp@i
  3558  0330  01A3               	clrf	startUp@i+1
  3559  0331                     l2381:
  3560                           
  3561                           ;main.c: 170: setLEDColor(255, 0, 255);
  3562  0331  0020               	movlb	0	; select bank0
  3563  0332  01A0               	clrf	setLEDColor@green
  3564  0333  30FF               	movlw	255
  3565  0334  00FB               	movwf	??_startUp
  3566  0335  087B               	movf	??_startUp,w
  3567  0336  00A1               	movwf	setLEDColor@blue
  3568  0337  30FF               	movlw	255
  3569  0338  3184  24ED  3183   	fcall	_setLEDColor
  3570                           
  3571                           ;main.c: 171: _delay((unsigned long)((100)*(4000000/4000.0)));
  3572  033B  3082               	movlw	130
  3573  033C  00FB               	movwf	??_startUp
  3574  033D  30DE               	movlw	222
  3575  033E                     u1917:
  3576  033E  0B89               	decfsz	9,f
  3577  033F  2B3E               	goto	u1917
  3578  0340  0BFB               	decfsz	??_startUp,f
  3579  0341  2B3E               	goto	u1917
  3580                           
  3581                           ;main.c: 172: setLEDColor(0, 0, 0);
  3582  0342  0020               	movlb	0	; select bank0
  3583  0343  01A0               	clrf	setLEDColor@green
  3584  0344  01A1               	clrf	setLEDColor@blue
  3585  0345  3000               	movlw	0
  3586  0346  3184  24ED  3183   	fcall	_setLEDColor
  3587                           
  3588                           ;main.c: 173: _delay((unsigned long)((100)*(4000000/4000.0)));
  3589  0349  3082               	movlw	130
  3590  034A  00FB               	movwf	??_startUp
  3591  034B  30DE               	movlw	222
  3592  034C                     u1927:
  3593  034C  0B89               	decfsz	9,f
  3594  034D  2B4C               	goto	u1927
  3595  034E  0BFB               	decfsz	??_startUp,f
  3596  034F  2B4C               	goto	u1927
  3597  0350  3001               	movlw	1
  3598  0351  0020               	movlb	0	; select bank0
  3599  0352  07A2               	addwf	startUp@i,f
  3600  0353  3000               	movlw	0
  3601  0354  3DA3               	addwfc	startUp@i+1,f
  3602  0355  0823               	movf	startUp@i+1,w
  3603  0356  3A80               	xorlw	128
  3604  0357  00FB               	movwf	??_startUp
  3605  0358  3080               	movlw	128
  3606  0359  027B               	subwf	??_startUp,w
  3607  035A  1D03               	skipz
  3608  035B  2B5E               	goto	u1815
  3609  035C  3005               	movlw	5
  3610  035D  0222               	subwf	startUp@i,w
  3611  035E                     u1815:
  3612  035E  1C03               	skipc
  3613  035F  2B31               	goto	l2381
  3614                           
  3615                           ;main.c: 174: };main.c: 175: duty = 0;
  3616  0360  0020               	movlb	0	; select bank0
  3617  0361  01C4               	clrf	_duty
  3618  0362  0008               	return
  3619  0363                     __end_of_startUp:
  3620                           
  3621                           	psect	text2
  3622  0030                     __ptext2:	
  3623 ;; *************** function _process_remote_command *****************
  3624 ;; Defined at:
  3625 ;;		line 225 in file "main.c"
  3626 ;; Parameters:    Size  Location     Type
  3627 ;;  code            1    wreg     PTR struct .
  3628 ;;		 -> ir_code(6), 
  3629 ;; Auto vars:     Size  Location     Type
  3630 ;;  code            1   29[BANK0 ] PTR struct .
  3631 ;;		 -> ir_code(6), 
  3632 ;; Return value:  Size  Location     Type
  3633 ;;                  1    wreg      void 
  3634 ;; Registers used:
  3635 ;;		wreg, fsr0l, fsr0h, fsr1l, fsr1h, status,2, status,0, pclath, cstack
  3636 ;; Tracked objects:
  3637 ;;		On entry : 0/0
  3638 ;;		On exit  : 0/0
  3639 ;;		Unchanged: 0/0
  3640 ;; Data sizes:     COMMON   BANK0   BANK1   BANK2   BANK3   BANK4   BANK5   BANK6
  3641 ;;      Params:         0       0       0       0       0       0       0       0
  3642 ;;      Locals:         0       1       0       0       0       0       0       0
  3643 ;;      Temps:          0       2       0       0       0       0       0       0
  3644 ;;      Totals:         0       3       0       0       0       0       0       0
  3645 ;;Total ram usage:        3 bytes
  3646 ;; Hardware stack levels used:    1
  3647 ;; Hardware stack levels required when called:    8
  3648 ;; This function calls:
  3649 ;;		_printf
  3650 ;;		_selectFrequency
  3651 ;;		_selectSomething
  3652 ;;		_setLEDColor
  3653 ;; This function is called by:
  3654 ;;		_main
  3655 ;; This function uses a non-reentrant model
  3656 ;;
  3657                           
  3658                           
  3659                           ;psect for function _process_remote_command
  3660  0030                     _process_remote_command:
  3661                           
  3662                           ;incstack = 0
  3663                           ; Regs used in _process_remote_command: [wreg-fsr1h+status,2+status,0+pclath+cstack]
  3664                           ;process_remote_command@code stored from wreg
  3665  0030  0020               	movlb	0	; select bank0
  3666  0031  00BD               	movwf	process_remote_command@code
  3667                           
  3668                           ;main.c: 226: setLEDColor(0, 0, 0);
  3669  0032  01A0               	clrf	setLEDColor@green
  3670  0033  01A1               	clrf	setLEDColor@blue
  3671  0034  3000               	movlw	0
  3672  0035  3184  24ED  3180   	fcall	_setLEDColor
  3673                           
  3674                           ;main.c: 228: switch(code->command){
  3675  0038  28B0               	goto	l2453
  3676  0039                     l2391:
  3677                           
  3678                           ;main.c: 230: setLEDColor(0, 0, 0);
  3679  0039  01A0               	clrf	setLEDColor@green
  3680  003A  01A1               	clrf	setLEDColor@blue
  3681  003B  3000               	movlw	0
  3682  003C  3184  24ED  3180   	fcall	_setLEDColor
  3683                           
  3684                           ;main.c: 231: if (flag == 1){
  3685  003F  0020               	movlb	0	; select bank0
  3686  0040  0346               	decf	_flag,w
  3687  0041  1D03               	btfss	3,2
  3688  0042  2864               	goto	l2405
  3689                           
  3690                           ;main.c: 232: if (duty >= 0 && duty <=150){
  3691  0043  3097               	movlw	151
  3692  0044  0244               	subwf	_duty,w
  3693  0045  1803               	skipnc
  3694  0046  284D               	goto	l2399
  3695                           
  3696                           ;main.c: 233: duty = duty + 30;
  3697  0047  0844               	movf	_duty,w
  3698  0048  3E1E               	addlw	30
  3699  0049  00BB               	movwf	??_process_remote_command
  3700  004A  083B               	movf	??_process_remote_command,w
  3701  004B  00C4               	movwf	_duty
  3702                           
  3703                           ;main.c: 234: }
  3704  004C  2854               	goto	l2403
  3705  004D                     l2399:
  3706                           
  3707                           ;main.c: 235: else {;main.c: 236: duty = 150;
  3708  004D  3096               	movlw	150
  3709  004E  00BB               	movwf	??_process_remote_command
  3710  004F  083B               	movf	??_process_remote_command,w
  3711  0050  00C4               	movwf	_duty
  3712                           
  3713                           ;main.c: 237: selectSomething();
  3714  0051  3182  2299  3180   	fcall	_selectSomething
  3715  0054                     l2403:
  3716                           
  3717                           ;main.c: 238: };main.c: 241: printf("%d\n", (duty));
  3718  0054  3096               	movlw	low (STR_2| (0+32768))
  3719  0055  0020               	movlb	0	; select bank0
  3720  0056  00AB               	movwf	printf@f
  3721  0057  3085               	movlw	high (STR_2| (0+32768))
  3722  0058  00AC               	movwf	printf@f+1
  3723  0059  0844               	movf	_duty,w
  3724  005A  00BB               	movwf	??_process_remote_command
  3725  005B  01BC               	clrf	??_process_remote_command+1
  3726  005C  083B               	movf	??_process_remote_command,w
  3727  005D  00AD               	movwf	?_printf+2
  3728  005E  083C               	movf	??_process_remote_command+1,w
  3729  005F  00AE               	movwf	?_printf+3
  3730  0060  3180  20FF  3180   	fcall	_printf
  3731                           
  3732                           ;main.c: 242: }
  3733  0063  28DE               	goto	l2455
  3734  0064                     l2405:
  3735                           
  3736                           ;main.c: 243: else if (flag == 2){
  3737  0064  3002               	movlw	2
  3738  0065  0646               	xorwf	_flag,w
  3739  0066  1903               	btfsc	3,2
  3740  0067  28DE               	goto	l2455
  3741  0068                     l2409:
  3742                           
  3743                           ;main.c: 246: else{;main.c: 247: selectSomething();
  3744  0068  3182  2299  3180   	fcall	_selectSomething
  3745  006B  28DE               	goto	l2455
  3746  006C                     l2411:
  3747                           
  3748                           ;main.c: 251: if (flag == 1){
  3749  006C  0346               	decf	_flag,w
  3750  006D  1D03               	btfss	3,2
  3751  006E  2864               	goto	l2405
  3752                           
  3753                           ;main.c: 252: if (duty >= 0 && duty <=150){
  3754  006F  3097               	movlw	151
  3755  0070  0244               	subwf	_duty,w
  3756  0071  1803               	skipnc
  3757  0072  2887               	goto	l2419
  3758                           
  3759                           ;main.c: 253: duty = duty - 30;
  3760  0073  0844               	movf	_duty,w
  3761  0074  3EE2               	addlw	226
  3762  0075  00BB               	movwf	??_process_remote_command
  3763  0076  083B               	movf	??_process_remote_command,w
  3764  0077  00C4               	movwf	_duty
  3765                           
  3766                           ;main.c: 254: printf("%d\n", (duty));
  3767  0078  3096               	movlw	low (STR_2| (0+32768))
  3768  0079  00AB               	movwf	printf@f
  3769  007A  3085               	movlw	high (STR_2| (0+32768))
  3770  007B  00AC               	movwf	printf@f+1
  3771  007C  0844               	movf	_duty,w
  3772  007D  00BB               	movwf	??_process_remote_command
  3773  007E  01BC               	clrf	??_process_remote_command+1
  3774  007F  083B               	movf	??_process_remote_command,w
  3775  0080  00AD               	movwf	?_printf+2
  3776  0081  083C               	movf	??_process_remote_command+1,w
  3777  0082  00AE               	movwf	?_printf+3
  3778  0083  3180  20FF  3180   	fcall	_printf
  3779                           
  3780                           ;main.c: 255: }
  3781  0086  28DE               	goto	l2455
  3782  0087                     l2419:
  3783                           
  3784                           ;main.c: 256: else{;main.c: 257: duty = 150;
  3785  0087  3096               	movlw	150
  3786  0088  00BB               	movwf	??_process_remote_command
  3787  0089  083B               	movf	??_process_remote_command,w
  3788  008A  00C4               	movwf	_duty
  3789  008B  2868               	goto	l2409
  3790  008C                     l2429:	
  3791                           ;main.c: 263: else if (flag == 2){
  3792                           
  3793                           
  3794                           ;main.c: 271: selectFrequency();
  3795  008C  3184  2483  3180   	fcall	_selectFrequency
  3796                           
  3797                           ;main.c: 272: break;
  3798  008F  28DE               	goto	l2455
  3799  0090                     l2431:
  3800                           
  3801                           ;main.c: 274: LED_red = 0;
  3802  0090  01C9               	clrf	_LED_red
  3803                           
  3804                           ;main.c: 275: LED_green = 130;
  3805  0091  3082               	movlw	130
  3806  0092  00BB               	movwf	??_process_remote_command
  3807  0093  083B               	movf	??_process_remote_command,w
  3808  0094  00C8               	movwf	_LED_green
  3809                           
  3810                           ;main.c: 276: LED_blue = 255;
  3811  0095  30FF               	movlw	255
  3812  0096  00BB               	movwf	??_process_remote_command
  3813  0097  083B               	movf	??_process_remote_command,w
  3814  0098  00C7               	movwf	_LED_blue
  3815                           
  3816                           ;main.c: 277: flag = 2;
  3817  0099  3002               	movlw	2
  3818  009A  00BB               	movwf	??_process_remote_command
  3819  009B  083B               	movf	??_process_remote_command,w
  3820  009C  00C6               	movwf	_flag
  3821                           
  3822                           ;main.c: 278: break;
  3823  009D  28DE               	goto	l2455
  3824  009E                     l2439:
  3825                           
  3826                           ;main.c: 280: LED_red = 0;
  3827  009E  01C9               	clrf	_LED_red
  3828                           
  3829                           ;main.c: 281: LED_green = 255;
  3830  009F  30FF               	movlw	255
  3831  00A0  00BB               	movwf	??_process_remote_command
  3832  00A1  083B               	movf	??_process_remote_command,w
  3833  00A2  00C8               	movwf	_LED_green
  3834                           
  3835                           ;main.c: 282: LED_blue = 0;
  3836  00A3  01C7               	clrf	_LED_blue
  3837                           
  3838                           ;main.c: 283: printf("\n reset select");
  3839  00A4  301B               	movlw	low (STR_4| (0+32768))
  3840  00A5  00AB               	movwf	printf@f
  3841  00A6  3085               	movlw	high (STR_4| (0+32768))
  3842  00A7  00AC               	movwf	printf@f+1
  3843  00A8  3180  20FF  3180   	fcall	_printf
  3844                           
  3845                           ;main.c: 284: flag = 0;
  3846  00AB  0020               	movlb	0	; select bank0
  3847  00AC  01C6               	clrf	_flag
  3848                           
  3849                           ;main.c: 285: break;
  3850  00AD  28DE               	goto	l2455
  3851  00AE                     l2449:
  3852                           
  3853                           ;main.c: 287: duty = 0;
  3854  00AE  01C4               	clrf	_duty
  3855                           
  3856                           ;main.c: 288: break;
  3857  00AF  28DE               	goto	l2455
  3858  00B0                     l2453:
  3859  00B0  0020               	movlb	0	; select bank0
  3860  00B1  083D               	movf	process_remote_command@code,w
  3861  00B2  3E03               	addlw	3
  3862  00B3  0086               	movwf	6
  3863  00B4  0187               	clrf	7
  3864  00B5  0801               	movf	1,w
  3865                           
  3866                           ; Switch size 1, requested type "simple"
  3867                           ; Number of cases is 13, Range of values is 8 to 176
  3868                           ; switch strategies available:
  3869                           ; Name         Instructions Cycles
  3870                           ; simple_byte           40    21 (average)
  3871                           ; jumptable            263     9 (fixed)
  3872                           ;	Chosen strategy is simple_byte
  3873  00B6  3A08               	xorlw	8	; case 8
  3874  00B7  1903               	skipnz
  3875  00B8  289E               	goto	l2439
  3876  00B9  3A18               	xorlw	24	; case 16
  3877  00BA  1903               	skipnz
  3878  00BB  2890               	goto	l2431
  3879  00BC  3A08               	xorlw	8	; case 24
  3880  00BD  1903               	skipnz
  3881  00BE  28DE               	goto	l2455
  3882  00BF  3A30               	xorlw	48	; case 40
  3883  00C0  1903               	skipnz
  3884  00C1  28DE               	goto	l2455
  3885  00C2  3A60               	xorlw	96	; case 72
  3886  00C3  1903               	skipnz
  3887  00C4  28DE               	goto	l2455
  3888  00C5  3A18               	xorlw	24	; case 80
  3889  00C6  1903               	skipnz
  3890  00C7  288C               	goto	l2429
  3891  00C8  3A08               	xorlw	8	; case 88
  3892  00C9  1903               	skipnz
  3893  00CA  28DE               	goto	l2455
  3894  00CB  3A30               	xorlw	48	; case 104
  3895  00CC  1903               	skipnz
  3896  00CD  28DE               	goto	l2455
  3897  00CE  3AE0               	xorlw	224	; case 136
  3898  00CF  1903               	skipnz
  3899  00D0  28AE               	goto	l2449
  3900  00D1  3A10               	xorlw	16	; case 152
  3901  00D2  1903               	skipnz
  3902  00D3  28DE               	goto	l2455
  3903  00D4  3A38               	xorlw	56	; case 160
  3904  00D5  1903               	skipnz
  3905  00D6  2839               	goto	l2391
  3906  00D7  3A08               	xorlw	8	; case 168
  3907  00D8  1903               	skipnz
  3908  00D9  28DE               	goto	l2455
  3909  00DA  3A18               	xorlw	24	; case 176
  3910  00DB  1903               	skipnz
  3911  00DC  286C               	goto	l2411
  3912  00DD  28DE               	goto	l2455
  3913  00DE                     l2455:
  3914                           
  3915                           ;main.c: 307: setLEDColor(LED_red, LED_green, LED_blue);
  3916  00DE  0020               	movlb	0	; select bank0
  3917  00DF  0848               	movf	_LED_green,w
  3918  00E0  00BB               	movwf	??_process_remote_command
  3919  00E1  083B               	movf	??_process_remote_command,w
  3920  00E2  00A0               	movwf	setLEDColor@green
  3921  00E3  0847               	movf	_LED_blue,w
  3922  00E4  00BC               	movwf	??_process_remote_command+1
  3923  00E5  083C               	movf	??_process_remote_command+1,w
  3924  00E6  00A1               	movwf	setLEDColor@blue
  3925  00E7  0849               	movf	_LED_red,w
  3926  00E8  3184  24ED  3180   	fcall	_setLEDColor
  3927                           
  3928                           ;main.c: 308: _delay((unsigned long)((1000)*(4000000/4000.0)));
  3929  00EB  3006               	movlw	6
  3930  00EC  0020               	movlb	0	; select bank0
  3931  00ED  00BC               	movwf	??_process_remote_command+1
  3932  00EE  3013               	movlw	19
  3933  00EF  00BB               	movwf	??_process_remote_command
  3934  00F0  30AD               	movlw	173
  3935  00F1                     u1937:
  3936  00F1  0B89               	decfsz	9,f
  3937  00F2  28F1               	goto	u1937
  3938  00F3  0BBB               	decfsz	??_process_remote_command,f
  3939  00F4  28F1               	goto	u1937
  3940  00F5  0BBC               	decfsz	??_process_remote_command+1,f
  3941  00F6  28F1               	goto	u1937
  3942  00F7  3200               	nop2
  3943                           
  3944                           ;main.c: 309: setLEDColor(0, 0, 0);
  3945  00F8  0020               	movlb	0	; select bank0
  3946  00F9  01A0               	clrf	setLEDColor@green
  3947  00FA  01A1               	clrf	setLEDColor@blue
  3948  00FB  3000               	movlw	0
  3949  00FC  3184  24ED         	fcall	_setLEDColor
  3950  00FE  0008               	return
  3951  00FF                     __end_of_process_remote_command:
  3952                           
  3953                           	psect	text3
  3954  0299                     __ptext3:	
  3955 ;; *************** function _selectSomething *****************
  3956 ;; Defined at:
  3957 ;;		line 178 in file "main.c"
  3958 ;; Parameters:    Size  Location     Type
  3959 ;;		None
  3960 ;; Auto vars:     Size  Location     Type
  3961 ;;		None
  3962 ;; Return value:  Size  Location     Type
  3963 ;;                  1    wreg      void 
  3964 ;; Registers used:
  3965 ;;		wreg, status,2, status,0, pclath, cstack
  3966 ;; Tracked objects:
  3967 ;;		On entry : 0/0
  3968 ;;		On exit  : 0/0
  3969 ;;		Unchanged: 0/0
  3970 ;; Data sizes:     COMMON   BANK0   BANK1   BANK2   BANK3   BANK4   BANK5   BANK6
  3971 ;;      Params:         0       0       0       0       0       0       0       0
  3972 ;;      Locals:         0       0       0       0       0       0       0       0
  3973 ;;      Temps:          0       2       0       0       0       0       0       0
  3974 ;;      Totals:         0       2       0       0       0       0       0       0
  3975 ;;Total ram usage:        2 bytes
  3976 ;; Hardware stack levels used:    1
  3977 ;; Hardware stack levels required when called:    5
  3978 ;; This function calls:
  3979 ;;		_setLEDColor
  3980 ;; This function is called by:
  3981 ;;		_process_remote_command
  3982 ;; This function uses a non-reentrant model
  3983 ;;
  3984                           
  3985                           
  3986                           ;psect for function _selectSomething
  3987  0299                     _selectSomething:
  3988                           
  3989                           ;main.c: 180: setLEDColor(255, 0, 0);
  3990                           
  3991                           ;incstack = 0
  3992                           ; Regs used in _selectSomething: [wreg+status,2+status,0+pclath+cstack]
  3993  0299  0020               	movlb	0	; select bank0
  3994  029A  01A0               	clrf	setLEDColor@green
  3995  029B  01A1               	clrf	setLEDColor@blue
  3996  029C  30FF               	movlw	255
  3997  029D  3184  24ED  3182   	fcall	_setLEDColor
  3998                           
  3999                           ;main.c: 181: _delay((unsigned long)((500)*(4000000/4000.0)));
  4000  02A0  3003               	movlw	3
  4001  02A1  0020               	movlb	0	; select bank0
  4002  02A2  00A3               	movwf	??_selectSomething+1
  4003  02A3  308A               	movlw	138
  4004  02A4  00A2               	movwf	??_selectSomething
  4005  02A5  3055               	movlw	85
  4006  02A6                     u1947:
  4007  02A6  0B89               	decfsz	9,f
  4008  02A7  2AA6               	goto	u1947
  4009  02A8  0BA2               	decfsz	??_selectSomething,f
  4010  02A9  2AA6               	goto	u1947
  4011  02AA  0BA3               	decfsz	??_selectSomething+1,f
  4012  02AB  2AA6               	goto	u1947
  4013  02AC  3200               	nop2
  4014                           
  4015                           ;main.c: 182: setLEDColor(0, 0, 0);
  4016  02AD  0020               	movlb	0	; select bank0
  4017  02AE  01A0               	clrf	setLEDColor@green
  4018  02AF  01A1               	clrf	setLEDColor@blue
  4019  02B0  3000               	movlw	0
  4020  02B1  3184  24ED  3182   	fcall	_setLEDColor
  4021                           
  4022                           ;main.c: 183: _delay((unsigned long)((500)*(4000000/4000.0)));
  4023  02B4  3003               	movlw	3
  4024  02B5  0020               	movlb	0	; select bank0
  4025  02B6  00A3               	movwf	??_selectSomething+1
  4026  02B7  308A               	movlw	138
  4027  02B8  00A2               	movwf	??_selectSomething
  4028  02B9  3055               	movlw	85
  4029  02BA                     u1957:
  4030  02BA  0B89               	decfsz	9,f
  4031  02BB  2ABA               	goto	u1957
  4032  02BC  0BA2               	decfsz	??_selectSomething,f
  4033  02BD  2ABA               	goto	u1957
  4034  02BE  0BA3               	decfsz	??_selectSomething+1,f
  4035  02BF  2ABA               	goto	u1957
  4036  02C0  3200               	nop2
  4037                           
  4038                           ;main.c: 184: setLEDColor(255, 0, 0);
  4039  02C1  0020               	movlb	0	; select bank0
  4040  02C2  01A0               	clrf	setLEDColor@green
  4041  02C3  01A1               	clrf	setLEDColor@blue
  4042  02C4  30FF               	movlw	255
  4043  02C5  3184  24ED  3182   	fcall	_setLEDColor
  4044                           
  4045                           ;main.c: 185: _delay((unsigned long)((500)*(4000000/4000.0)));
  4046  02C8  3003               	movlw	3
  4047  02C9  0020               	movlb	0	; select bank0
  4048  02CA  00A3               	movwf	??_selectSomething+1
  4049  02CB  308A               	movlw	138
  4050  02CC  00A2               	movwf	??_selectSomething
  4051  02CD  3055               	movlw	85
  4052  02CE                     u1967:
  4053  02CE  0B89               	decfsz	9,f
  4054  02CF  2ACE               	goto	u1967
  4055  02D0  0BA2               	decfsz	??_selectSomething,f
  4056  02D1  2ACE               	goto	u1967
  4057  02D2  0BA3               	decfsz	??_selectSomething+1,f
  4058  02D3  2ACE               	goto	u1967
  4059  02D4  3200               	nop2
  4060                           
  4061                           ;main.c: 186: setLEDColor(0, 0, 0);
  4062  02D5  0020               	movlb	0	; select bank0
  4063  02D6  01A0               	clrf	setLEDColor@green
  4064  02D7  01A1               	clrf	setLEDColor@blue
  4065  02D8  3000               	movlw	0
  4066  02D9  3184  24ED  3182   	fcall	_setLEDColor
  4067                           
  4068                           ;main.c: 187: _delay((unsigned long)((500)*(4000000/4000.0)));
  4069  02DC  3003               	movlw	3
  4070  02DD  0020               	movlb	0	; select bank0
  4071  02DE  00A3               	movwf	??_selectSomething+1
  4072  02DF  308A               	movlw	138
  4073  02E0  00A2               	movwf	??_selectSomething
  4074  02E1  3055               	movlw	85
  4075  02E2                     u1977:
  4076  02E2  0B89               	decfsz	9,f
  4077  02E3  2AE2               	goto	u1977
  4078  02E4  0BA2               	decfsz	??_selectSomething,f
  4079  02E5  2AE2               	goto	u1977
  4080  02E6  0BA3               	decfsz	??_selectSomething+1,f
  4081  02E7  2AE2               	goto	u1977
  4082  02E8  3200               	nop2
  4083  02E9  0008               	return
  4084  02EA                     __end_of_selectSomething:
  4085                           
  4086                           	psect	text4
  4087  0483                     __ptext4:	
  4088 ;; *************** function _selectFrequency *****************
  4089 ;; Defined at:
  4090 ;;		line 190 in file "main.c"
  4091 ;; Parameters:    Size  Location     Type
  4092 ;;		None
  4093 ;; Auto vars:     Size  Location     Type
  4094 ;;		None
  4095 ;; Return value:  Size  Location     Type
  4096 ;;                  1    wreg      void 
  4097 ;; Registers used:
  4098 ;;		wreg, fsr0l, fsr0h, fsr1l, fsr1h, status,2, status,0, pclath, cstack
  4099 ;; Tracked objects:
  4100 ;;		On entry : 0/0
  4101 ;;		On exit  : 0/0
  4102 ;;		Unchanged: 0/0
  4103 ;; Data sizes:     COMMON   BANK0   BANK1   BANK2   BANK3   BANK4   BANK5   BANK6
  4104 ;;      Params:         0       0       0       0       0       0       0       0
  4105 ;;      Locals:         0       0       0       0       0       0       0       0
  4106 ;;      Temps:          0       2       0       0       0       0       0       0
  4107 ;;      Totals:         0       2       0       0       0       0       0       0
  4108 ;;Total ram usage:        2 bytes
  4109 ;; Hardware stack levels used:    1
  4110 ;; Hardware stack levels required when called:    7
  4111 ;; This function calls:
  4112 ;;		_printf
  4113 ;;		_setLEDColor
  4114 ;; This function is called by:
  4115 ;;		_process_remote_command
  4116 ;; This function uses a non-reentrant model
  4117 ;;
  4118                           
  4119                           
  4120                           ;psect for function _selectFrequency
  4121  0483                     _selectFrequency:
  4122                           
  4123                           ;main.c: 191: flag = 1;
  4124                           
  4125                           ;incstack = 0
  4126                           ; Regs used in _selectFrequency: [wreg-fsr1h+status,2+status,0+pclath+cstack]
  4127  0483  0020               	movlb	0	; select bank0
  4128  0484  01C6               	clrf	_flag
  4129  0485  0AC6               	incf	_flag,f
  4130                           
  4131                           ;main.c: 192: setLEDColor(255, 0, 255);
  4132  0486  01A0               	clrf	setLEDColor@green
  4133  0487  30FF               	movlw	255
  4134  0488  00B9               	movwf	??_selectFrequency
  4135  0489  0839               	movf	??_selectFrequency,w
  4136  048A  00A1               	movwf	setLEDColor@blue
  4137  048B  30FF               	movlw	255
  4138  048C  3184  24ED  3184   	fcall	_setLEDColor
  4139                           
  4140                           ;main.c: 193: _delay((unsigned long)((1000)*(4000000/4000.0)));
  4141  048F  3006               	movlw	6
  4142  0490  0020               	movlb	0	; select bank0
  4143  0491  00BA               	movwf	??_selectFrequency+1
  4144  0492  3013               	movlw	19
  4145  0493  00B9               	movwf	??_selectFrequency
  4146  0494  30AD               	movlw	173
  4147  0495                     u1987:
  4148  0495  0B89               	decfsz	9,f
  4149  0496  2C95               	goto	u1987
  4150  0497  0BB9               	decfsz	??_selectFrequency,f
  4151  0498  2C95               	goto	u1987
  4152  0499  0BBA               	decfsz	??_selectFrequency+1,f
  4153  049A  2C95               	goto	u1987
  4154  049B  3200               	nop2
  4155                           
  4156                           ;main.c: 194: setLEDColor(0, 0, 0);
  4157  049C  0020               	movlb	0	; select bank0
  4158  049D  01A0               	clrf	setLEDColor@green
  4159  049E  01A1               	clrf	setLEDColor@blue
  4160  049F  3000               	movlw	0
  4161  04A0  3184  24ED  3184   	fcall	_setLEDColor
  4162                           
  4163                           ;main.c: 195: printf("\n Frequency selected");
  4164  04A3  3006               	movlw	low (STR_1| (0+32768))
  4165  04A4  0020               	movlb	0	; select bank0
  4166  04A5  00AB               	movwf	printf@f
  4167  04A6  3085               	movlw	high (STR_1| (0+32768))
  4168  04A7  00AC               	movwf	printf@f+1
  4169  04A8  3180  20FF         	fcall	_printf
  4170  04AA  0008               	return
  4171  04AB                     __end_of_selectFrequency:
  4172                           
  4173                           	psect	text5
  4174  00FF                     __ptext5:	
  4175 ;; *************** function _printf *****************
  4176 ;; Defined at:
  4177 ;;		line 477 in file "/opt/microchip/xc8/v2.20/pic/sources/c90/common/doprnt.c"
  4178 ;; Parameters:    Size  Location     Type
  4179 ;;  f               2   11[BANK0 ] PTR const unsigned char 
  4180 ;;		 -> STR_4(15), STR_3(4), STR_2(4), STR_1(21), 
  4181 ;; Auto vars:     Size  Location     Type
  4182 ;;  tmpval          4    0        struct .
  4183 ;;  val             2   22[BANK0 ] unsigned int 
  4184 ;;  cp              2    0        PTR const unsigned char 
  4185 ;;  len             2    0        unsigned int 
  4186 ;;  c               1   24[BANK0 ] unsigned char 
  4187 ;;  prec            1   21[BANK0 ] char 
  4188 ;;  flag            1   20[BANK0 ] unsigned char 
  4189 ;;  ap              1   19[BANK0 ] PTR void [1]
  4190 ;;		 -> ?_printf(2), 
  4191 ;; Return value:  Size  Location     Type
  4192 ;;                  2   11[BANK0 ] int 
  4193 ;; Registers used:
  4194 ;;		wreg, fsr0l, fsr0h, fsr1l, fsr1h, status,2, status,0, pclath, cstack
  4195 ;; Tracked objects:
  4196 ;;		On entry : 0/0
  4197 ;;		On exit  : 0/0
  4198 ;;		Unchanged: 0/0
  4199 ;; Data sizes:     COMMON   BANK0   BANK1   BANK2   BANK3   BANK4   BANK5   BANK6
  4200 ;;      Params:         0       4       0       0       0       0       0       0
  4201 ;;      Locals:         0       6       0       0       0       0       0       0
  4202 ;;      Temps:          0       4       0       0       0       0       0       0
  4203 ;;      Totals:         0      14       0       0       0       0       0       0
  4204 ;;Total ram usage:       14 bytes
  4205 ;; Hardware stack levels used:    1
  4206 ;; Hardware stack levels required when called:    6
  4207 ;; This function calls:
  4208 ;;		___lwdiv
  4209 ;;		___lwmod
  4210 ;;		_putch
  4211 ;; This function is called by:
  4212 ;;		_selectFrequency
  4213 ;;		_process_remote_command
  4214 ;; This function uses a non-reentrant model
  4215 ;;
  4216                           
  4217                           
  4218                           ;psect for function _printf
  4219  00FF                     _printf:
  4220                           
  4221                           ;doprnt.c: 479: va_list ap;;doprnt.c: 512: char c;;doprnt.c: 521: signed char prec;;dopr
      +                          nt.c: 525: unsigned char flag;;doprnt.c: 540: union {;doprnt.c: 541: unsigned long vd;;d
      +                          oprnt.c: 542: double integ;;doprnt.c: 543: } tmpval;;doprnt.c: 545: unsigned int val;;do
      +                          prnt.c: 546: unsigned len;;doprnt.c: 547: const char * cp;;doprnt.c: 550: *ap = __va_sta
      +                          rt();
  4222                           
  4223                           ;incstack = 0
  4224                           ; Regs used in _printf: [wreg-fsr1h+status,2+status,0+pclath+cstack]
  4225  00FF  302D               	movlw	(low ((?_printf| 0+2)))& (0+255)
  4226  0100  0020               	movlb	0	; select bank0
  4227  0101  00AF               	movwf	??_printf
  4228  0102  082F               	movf	??_printf,w
  4229  0103  00B3               	movwf	printf@ap
  4230  0104                     l2257:	
  4231                           ;doprnt.c: 553: while((c = *f++)) {
  4232                           
  4233  0104  0020               	movlb	0	; select bank0
  4234  0105  082C               	movf	printf@f+1,w
  4235  0106  00B0               	movwf	??_printf+1
  4236  0107  082B               	movf	printf@f,w
  4237  0108  00AF               	movwf	??_printf
  4238  0109  0AAB               	incf	printf@f,f
  4239  010A  1903               	skipnz
  4240  010B  0AAC               	incf	printf@f+1,f
  4241  010C  082F               	movf	??_printf,w
  4242  010D  0084               	movwf	4
  4243  010E  0830               	movf	??_printf+1,w
  4244  010F  0085               	movwf	5
  4245  0110  0800               	movf	0,w	;code access
  4246  0111  00B1               	movwf	??_printf+2
  4247  0112  0831               	movf	??_printf+2,w
  4248  0113  00B8               	movwf	printf@c
  4249  0114  0838               	movf	printf@c,w
  4250  0115  1903               	btfsc	3,2
  4251  0116  0008               	return
  4252                           
  4253                           ;doprnt.c: 555: if(c != '%')
  4254  0117  3025               	movlw	37
  4255  0118  0638               	xorwf	printf@c,w
  4256  0119  1903               	btfsc	3,2
  4257  011A  2920               	goto	l2217
  4258                           
  4259                           ;doprnt.c: 557: {;doprnt.c: 558: (putch(c) );
  4260  011B  0838               	movf	printf@c,w
  4261  011C  3185  2591  3180   	fcall	_putch
  4262                           
  4263                           ;doprnt.c: 559: continue;
  4264  011F  2904               	goto	l2257
  4265  0120                     l2217:
  4266                           
  4267                           ;doprnt.c: 560: };doprnt.c: 565: flag = 0;
  4268  0120  01B4               	clrf	printf@flag
  4269                           
  4270                           ;doprnt.c: 661: switch(c = *f++) {
  4271  0121  082C               	movf	printf@f+1,w
  4272  0122  00B0               	movwf	??_printf+1
  4273  0123  082B               	movf	printf@f,w
  4274  0124  00AF               	movwf	??_printf
  4275  0125  0AAB               	incf	printf@f,f
  4276  0126  1903               	skipnz
  4277  0127  0AAC               	incf	printf@f+1,f
  4278  0128  082F               	movf	??_printf,w
  4279  0129  0084               	movwf	4
  4280  012A  0830               	movf	??_printf+1,w
  4281  012B  0085               	movwf	5
  4282  012C  0800               	movf	0,w	;code access
  4283  012D  00B8               	movwf	printf@c
  4284                           
  4285                           ; Switch size 1, requested type "simple"
  4286                           ; Number of cases is 3, Range of values is 0 to 105
  4287                           ; switch strategies available:
  4288                           ; Name         Instructions Cycles
  4289                           ; simple_byte           10     6 (average)
  4290                           ; direct_byte          218     6 (fixed)
  4291                           ; jumptable            260     6 (fixed)
  4292                           ;	Chosen strategy is simple_byte
  4293  012E  3A00               	xorlw	0	; case 0
  4294  012F  1903               	skipnz
  4295  0130  29B1               	goto	l584
  4296  0131  3A64               	xorlw	100	; case 100
  4297  0132  1903               	skipnz
  4298  0133  2938               	goto	l2223
  4299  0134  3A0D               	xorlw	13	; case 105
  4300  0135  1903               	skipnz
  4301  0136  2938               	goto	l2223
  4302  0137  2904               	goto	l2257
  4303  0138                     l2223:
  4304                           
  4305                           ;doprnt.c: 1279: {;doprnt.c: 1285: val = (unsigned int)(*(int *)__va_arg((*(int **)ap), 
      +                          (int)0));
  4306  0138  0833               	movf	printf@ap,w
  4307  0139  0086               	movwf	6
  4308  013A  0187               	clrf	7
  4309  013B  3F40               	moviw [0]fsr1
  4310  013C  00B6               	movwf	printf@val
  4311  013D  3F41               	moviw [1]fsr1
  4312  013E  00B7               	movwf	printf@val+1
  4313  013F  3002               	movlw	2
  4314  0140  00AF               	movwf	??_printf
  4315  0141  082F               	movf	??_printf,w
  4316  0142  07B3               	addwf	printf@ap,f
  4317                           
  4318                           ;doprnt.c: 1287: if((int)val < 0) {
  4319  0143  1FB7               	btfss	printf@val+1,7
  4320  0144  294E               	goto	l2233
  4321                           
  4322                           ;doprnt.c: 1288: flag |= 0x03;
  4323  0145  3003               	movlw	3
  4324  0146  00AF               	movwf	??_printf
  4325  0147  082F               	movf	??_printf,w
  4326  0148  04B4               	iorwf	printf@flag,f
  4327                           
  4328                           ;doprnt.c: 1289: val = -val;
  4329  0149  09B6               	comf	printf@val,f
  4330  014A  09B7               	comf	printf@val+1,f
  4331  014B  0AB6               	incf	printf@val,f
  4332  014C  1903               	skipnz
  4333  014D  0AB7               	incf	printf@val+1,f
  4334  014E                     l2233:
  4335                           
  4336                           ;doprnt.c: 1290: };doprnt.c: 1292: };doprnt.c: 1331: for(c = 1 ; c != sizeof dpowers/siz
      +                          eof dpowers[0] ; c++)
  4337  014E  01B8               	clrf	printf@c
  4338  014F  0AB8               	incf	printf@c,f
  4339  0150                     l2239:
  4340                           
  4341                           ;doprnt.c: 1332: if(val < dpowers[c])
  4342  0150  0838               	movf	printf@c,w
  4343  0151  00AF               	movwf	??_printf
  4344  0152  01B0               	clrf	??_printf+1
  4345  0153  35AF               	lslf	??_printf,f
  4346  0154  0DB0               	rlf	??_printf+1,f
  4347  0155  3041               	movlw	low (_dpowers| (0+32768))
  4348  0156  072F               	addwf	??_printf,w
  4349  0157  0084               	movwf	4
  4350  0158  3085               	movlw	high (_dpowers| (0+32768))
  4351  0159  3D30               	addwfc	??_printf+1,w
  4352  015A  0085               	movwf	5
  4353  015B  3F00               	moviw [0]fsr0
  4354  015C  00B1               	movwf	??_printf+2
  4355  015D  3F01               	moviw [1]fsr0
  4356  015E  00B2               	movwf	??_printf+3
  4357  015F  0832               	movf	??_printf+3,w
  4358  0160  0237               	subwf	printf@val+1,w
  4359  0161  1D03               	skipz
  4360  0162  2965               	goto	u1645
  4361  0163  0831               	movf	??_printf+2,w
  4362  0164  0236               	subwf	printf@val,w
  4363  0165                     u1645:
  4364  0165  1C03               	btfss	3,0
  4365  0166  296F               	goto	l2245
  4366  0167  3001               	movlw	1
  4367  0168  00AF               	movwf	??_printf
  4368  0169  082F               	movf	??_printf,w
  4369  016A  07B8               	addwf	printf@c,f
  4370  016B  3005               	movlw	5
  4371  016C  0638               	xorwf	printf@c,w
  4372  016D  1D03               	btfss	3,2
  4373  016E  2950               	goto	l2239
  4374  016F                     l2245:
  4375                           
  4376                           ;doprnt.c: 1448: {;doprnt.c: 1464: if(flag & 0x03)
  4377  016F  0834               	movf	printf@flag,w
  4378  0170  3903               	andlw	3
  4379  0171  1903               	btfsc	3,2
  4380  0172  2977               	goto	l2249
  4381                           
  4382                           ;doprnt.c: 1465: (putch('-') );
  4383  0173  302D               	movlw	45
  4384  0174  3185  2591  3180   	fcall	_putch
  4385  0177                     l2249:
  4386                           
  4387                           ;doprnt.c: 1495: };doprnt.c: 1498: prec = c;
  4388  0177  0020               	movlb	0	; select bank0
  4389  0178  0838               	movf	printf@c,w
  4390  0179  00AF               	movwf	??_printf
  4391  017A  082F               	movf	??_printf,w
  4392  017B  00B5               	movwf	printf@prec
  4393  017C                     l2255:	
  4394                           ;doprnt.c: 1500: while(prec--) {
  4395                           
  4396  017C  30FF               	movlw	255
  4397  017D  0020               	movlb	0	; select bank0
  4398  017E  00AF               	movwf	??_printf
  4399  017F  082F               	movf	??_printf,w
  4400  0180  07B5               	addwf	printf@prec,f
  4401  0181  0A35               	incf	printf@prec,w
  4402  0182  1903               	btfsc	3,2
  4403  0183  2904               	goto	l2257
  4404                           
  4405                           ;doprnt.c: 1504: {;doprnt.c: 1515: c = (val / dpowers[(unsigned char)prec]) % 10 + '0';
  4406  0184  300A               	movlw	10
  4407  0185  00A7               	movwf	___lwmod@divisor
  4408  0186  3000               	movlw	0
  4409  0187  00A8               	movwf	___lwmod@divisor+1
  4410  0188  0835               	movf	printf@prec,w
  4411  0189  00AF               	movwf	??_printf
  4412  018A  01B0               	clrf	??_printf+1
  4413  018B  35AF               	lslf	??_printf,f
  4414  018C  0DB0               	rlf	??_printf+1,f
  4415  018D  3041               	movlw	low (_dpowers| (0+32768))
  4416  018E  072F               	addwf	??_printf,w
  4417  018F  0084               	movwf	4
  4418  0190  3085               	movlw	high (_dpowers| (0+32768))
  4419  0191  3D30               	addwfc	??_printf+1,w
  4420  0192  0085               	movwf	5
  4421  0193  3F00               	moviw [0]fsr0
  4422  0194  00A0               	movwf	___lwdiv@divisor
  4423  0195  3F01               	moviw [1]fsr0
  4424  0196  00A1               	movwf	___lwdiv@divisor+1
  4425  0197  0837               	movf	printf@val+1,w
  4426  0198  00A3               	movwf	___lwdiv@dividend+1
  4427  0199  0836               	movf	printf@val,w
  4428  019A  00A2               	movwf	___lwdiv@dividend
  4429  019B  3183  2363  3180   	fcall	___lwdiv
  4430  019E  0020               	movlb	0	; select bank0
  4431  019F  0821               	movf	?___lwdiv+1,w
  4432  01A0  00AA               	movwf	___lwmod@dividend+1
  4433  01A1  0820               	movf	?___lwdiv,w
  4434  01A2  00A9               	movwf	___lwmod@dividend
  4435  01A3  3184  2456  3180   	fcall	___lwmod
  4436  01A6  0020               	movlb	0	; select bank0
  4437  01A7  0827               	movf	?___lwmod,w
  4438  01A8  3E30               	addlw	48
  4439  01A9  00B1               	movwf	??_printf+2
  4440  01AA  0831               	movf	??_printf+2,w
  4441  01AB  00B8               	movwf	printf@c
  4442                           
  4443                           ;doprnt.c: 1549: };doprnt.c: 1550: (putch(c) );
  4444  01AC  0838               	movf	printf@c,w
  4445  01AD  3185  2591  3180   	fcall	_putch
  4446  01B0  297C               	goto	l2255
  4447  01B1                     l584:
  4448  01B1  0008               	return
  4449  01B2                     __end_of_printf:
  4450                           
  4451                           	psect	text6
  4452  0591                     __ptext6:	
  4453 ;; *************** function _putch *****************
  4454 ;; Defined at:
  4455 ;;		line 146 in file "mcc_generated_files/eusart.c"
  4456 ;; Parameters:    Size  Location     Type
  4457 ;;  txData          1    wreg     unsigned char 
  4458 ;; Auto vars:     Size  Location     Type
  4459 ;;  txData          1    3[COMMON] unsigned char 
  4460 ;; Return value:  Size  Location     Type
  4461 ;;                  1    wreg      void 
  4462 ;; Registers used:
  4463 ;;		wreg, status,2, status,0, pclath, cstack
  4464 ;; Tracked objects:
  4465 ;;		On entry : 0/0
  4466 ;;		On exit  : 0/0
  4467 ;;		Unchanged: 0/0
  4468 ;; Data sizes:     COMMON   BANK0   BANK1   BANK2   BANK3   BANK4   BANK5   BANK6
  4469 ;;      Params:         0       0       0       0       0       0       0       0
  4470 ;;      Locals:         1       0       0       0       0       0       0       0
  4471 ;;      Temps:          0       0       0       0       0       0       0       0
  4472 ;;      Totals:         1       0       0       0       0       0       0       0
  4473 ;;Total ram usage:        1 bytes
  4474 ;; Hardware stack levels used:    1
  4475 ;; Hardware stack levels required when called:    5
  4476 ;; This function calls:
  4477 ;;		_EUSART_Write
  4478 ;; This function is called by:
  4479 ;;		_printf
  4480 ;; This function uses a non-reentrant model
  4481 ;;
  4482                           
  4483                           
  4484                           ;psect for function _putch
  4485  0591                     _putch:
  4486                           
  4487                           ;incstack = 0
  4488                           ; Regs used in _putch: [wreg+status,2+status,0+pclath+cstack]
  4489                           ;putch@txData stored from wreg
  4490  0591  00FA               	movwf	putch@txData
  4491                           
  4492                           ;eusart.c: 148: EUSART_Write(txData);
  4493  0592  087A               	movf	putch@txData,w
  4494  0593  3185  2555         	fcall	_EUSART_Write
  4495  0595  0008               	return
  4496  0596                     __end_of_putch:
  4497                           
  4498                           	psect	text7
  4499  0555                     __ptext7:	
  4500 ;; *************** function _EUSART_Write *****************
  4501 ;; Defined at:
  4502 ;;		line 132 in file "mcc_generated_files/eusart.c"
  4503 ;; Parameters:    Size  Location     Type
  4504 ;;  txData          1    wreg     unsigned char 
  4505 ;; Auto vars:     Size  Location     Type
  4506 ;;  txData          1    2[COMMON] unsigned char 
  4507 ;; Return value:  Size  Location     Type
  4508 ;;                  1    wreg      void 
  4509 ;; Registers used:
  4510 ;;		wreg
  4511 ;; Tracked objects:
  4512 ;;		On entry : 0/0
  4513 ;;		On exit  : 0/0
  4514 ;;		Unchanged: 0/0
  4515 ;; Data sizes:     COMMON   BANK0   BANK1   BANK2   BANK3   BANK4   BANK5   BANK6
  4516 ;;      Params:         0       0       0       0       0       0       0       0
  4517 ;;      Locals:         1       0       0       0       0       0       0       0
  4518 ;;      Temps:          0       0       0       0       0       0       0       0
  4519 ;;      Totals:         1       0       0       0       0       0       0       0
  4520 ;;Total ram usage:        1 bytes
  4521 ;; Hardware stack levels used:    1
  4522 ;; Hardware stack levels required when called:    4
  4523 ;; This function calls:
  4524 ;;		Nothing
  4525 ;; This function is called by:
  4526 ;;		_putch
  4527 ;; This function uses a non-reentrant model
  4528 ;;
  4529                           
  4530                           
  4531                           ;psect for function _EUSART_Write
  4532  0555                     _EUSART_Write:
  4533                           
  4534                           ;incstack = 0
  4535                           ; Regs used in _EUSART_Write: [wreg]
  4536                           ;EUSART_Write@txData stored from wreg
  4537  0555  00F9               	movwf	EUSART_Write@txData
  4538  0556                     l197:	
  4539                           ;eusart.c: 135: {
  4540                           
  4541  0556  0020               	movlb	0	; select bank0
  4542  0557  1E11               	btfss	17,4	;volatile
  4543  0558  2D56               	goto	l197
  4544                           
  4545                           ;eusart.c: 136: };eusart.c: 138: TX1REG = txData;
  4546  0559  0879               	movf	EUSART_Write@txData,w
  4547  055A  0023               	movlb	3	; select bank3
  4548  055B  009A               	movwf	26	;volatile
  4549  055C  0008               	return
  4550  055D                     __end_of_EUSART_Write:
  4551                           
  4552                           	psect	text8
  4553  0456                     __ptext8:	
  4554 ;; *************** function ___lwmod *****************
  4555 ;; Defined at:
  4556 ;;		line 5 in file "/opt/microchip/xc8/v2.20/pic/sources/c90/common/lwmod.c"
  4557 ;; Parameters:    Size  Location     Type
  4558 ;;  divisor         2    7[BANK0 ] unsigned int 
  4559 ;;  dividend        2    9[BANK0 ] unsigned int 
  4560 ;; Auto vars:     Size  Location     Type
  4561 ;;  counter         1    4[COMMON] unsigned char 
  4562 ;; Return value:  Size  Location     Type
  4563 ;;                  2    7[BANK0 ] unsigned int 
  4564 ;; Registers used:
  4565 ;;		wreg, status,2, status,0
  4566 ;; Tracked objects:
  4567 ;;		On entry : 0/0
  4568 ;;		On exit  : 0/0
  4569 ;;		Unchanged: 0/0
  4570 ;; Data sizes:     COMMON   BANK0   BANK1   BANK2   BANK3   BANK4   BANK5   BANK6
  4571 ;;      Params:         0       4       0       0       0       0       0       0
  4572 ;;      Locals:         1       0       0       0       0       0       0       0
  4573 ;;      Temps:          1       0       0       0       0       0       0       0
  4574 ;;      Totals:         2       4       0       0       0       0       0       0
  4575 ;;Total ram usage:        6 bytes
  4576 ;; Hardware stack levels used:    1
  4577 ;; Hardware stack levels required when called:    4
  4578 ;; This function calls:
  4579 ;;		Nothing
  4580 ;; This function is called by:
  4581 ;;		_printf
  4582 ;; This function uses a non-reentrant model
  4583 ;;
  4584                           
  4585                           
  4586                           ;psect for function ___lwmod
  4587  0456                     ___lwmod:
  4588                           
  4589                           ;incstack = 0
  4590                           ; Regs used in ___lwmod: [wreg+status,2+status,0]
  4591  0456  0020               	movlb	0	; select bank0
  4592  0457  0827               	movf	___lwmod@divisor,w
  4593  0458  0428               	iorwf	___lwmod@divisor+1,w
  4594  0459  1903               	btfsc	3,2
  4595  045A  2C7E               	goto	l2195
  4596  045B  01FB               	clrf	___lwmod@counter
  4597  045C  0AFB               	incf	___lwmod@counter,f
  4598  045D                     l2185:
  4599  045D  1BA8               	btfsc	___lwmod@divisor+1,7
  4600  045E  2C69               	goto	l2187
  4601  045F  3001               	movlw	1
  4602  0460                     u1565:
  4603  0460  35A7               	lslf	___lwmod@divisor,f
  4604  0461  0DA8               	rlf	___lwmod@divisor+1,f
  4605  0462  0B89               	decfsz	9,f
  4606  0463  2C60               	goto	u1565
  4607  0464  3001               	movlw	1
  4608  0465  00FA               	movwf	??___lwmod
  4609  0466  087A               	movf	??___lwmod,w
  4610  0467  07FB               	addwf	___lwmod@counter,f
  4611  0468  2C5D               	goto	l2185
  4612  0469                     l2187:
  4613  0469  0828               	movf	___lwmod@divisor+1,w
  4614  046A  022A               	subwf	___lwmod@dividend+1,w
  4615  046B  1D03               	skipz
  4616  046C  2C6F               	goto	u1585
  4617  046D  0827               	movf	___lwmod@divisor,w
  4618  046E  0229               	subwf	___lwmod@dividend,w
  4619  046F                     u1585:
  4620  046F  1C03               	skipc
  4621  0470  2C75               	goto	l2191
  4622  0471  0827               	movf	___lwmod@divisor,w
  4623  0472  02A9               	subwf	___lwmod@dividend,f
  4624  0473  0828               	movf	___lwmod@divisor+1,w
  4625  0474  3BAA               	subwfb	___lwmod@dividend+1,f
  4626  0475                     l2191:
  4627  0475  3001               	movlw	1
  4628  0476                     u1595:
  4629  0476  36A8               	lsrf	___lwmod@divisor+1,f
  4630  0477  0CA7               	rrf	___lwmod@divisor,f
  4631  0478  0B89               	decfsz	9,f
  4632  0479  2C76               	goto	u1595
  4633  047A  3001               	movlw	1
  4634  047B  02FB               	subwf	___lwmod@counter,f
  4635  047C  1D03               	btfss	3,2
  4636  047D  2C69               	goto	l2187
  4637  047E                     l2195:
  4638  047E  082A               	movf	___lwmod@dividend+1,w
  4639  047F  00A8               	movwf	?___lwmod+1
  4640  0480  0829               	movf	___lwmod@dividend,w
  4641  0481  00A7               	movwf	?___lwmod
  4642  0482  0008               	return
  4643  0483                     __end_of___lwmod:
  4644                           
  4645                           	psect	text9
  4646  0363                     __ptext9:	
  4647 ;; *************** function ___lwdiv *****************
  4648 ;; Defined at:
  4649 ;;		line 5 in file "/opt/microchip/xc8/v2.20/pic/sources/c90/common/lwdiv.c"
  4650 ;; Parameters:    Size  Location     Type
  4651 ;;  divisor         2    0[BANK0 ] unsigned int 
  4652 ;;  dividend        2    2[BANK0 ] unsigned int 
  4653 ;; Auto vars:     Size  Location     Type
  4654 ;;  quotient        2    5[BANK0 ] unsigned int 
  4655 ;;  counter         1    4[BANK0 ] unsigned char 
  4656 ;; Return value:  Size  Location     Type
  4657 ;;                  2    0[BANK0 ] unsigned int 
  4658 ;; Registers used:
  4659 ;;		wreg, status,2, status,0
  4660 ;; Tracked objects:
  4661 ;;		On entry : 0/0
  4662 ;;		On exit  : 0/0
  4663 ;;		Unchanged: 0/0
  4664 ;; Data sizes:     COMMON   BANK0   BANK1   BANK2   BANK3   BANK4   BANK5   BANK6
  4665 ;;      Params:         0       4       0       0       0       0       0       0
  4666 ;;      Locals:         0       3       0       0       0       0       0       0
  4667 ;;      Temps:          1       0       0       0       0       0       0       0
  4668 ;;      Totals:         1       7       0       0       0       0       0       0
  4669 ;;Total ram usage:        8 bytes
  4670 ;; Hardware stack levels used:    1
  4671 ;; Hardware stack levels required when called:    4
  4672 ;; This function calls:
  4673 ;;		Nothing
  4674 ;; This function is called by:
  4675 ;;		_printf
  4676 ;; This function uses a non-reentrant model
  4677 ;;
  4678                           
  4679                           
  4680                           ;psect for function ___lwdiv
  4681  0363                     ___lwdiv:
  4682                           
  4683                           ;incstack = 0
  4684                           ; Regs used in ___lwdiv: [wreg+status,2+status,0]
  4685  0363  0020               	movlb	0	; select bank0
  4686  0364  01A5               	clrf	___lwdiv@quotient
  4687  0365  01A6               	clrf	___lwdiv@quotient+1
  4688  0366  0820               	movf	___lwdiv@divisor,w
  4689  0367  0421               	iorwf	___lwdiv@divisor+1,w
  4690  0368  1903               	btfsc	3,2
  4691  0369  2B93               	goto	l2173
  4692  036A  01A4               	clrf	___lwdiv@counter
  4693  036B  0AA4               	incf	___lwdiv@counter,f
  4694  036C                     l2161:
  4695  036C  1BA1               	btfsc	___lwdiv@divisor+1,7
  4696  036D  2B78               	goto	l2163
  4697  036E  3001               	movlw	1
  4698  036F                     u1495:
  4699  036F  35A0               	lslf	___lwdiv@divisor,f
  4700  0370  0DA1               	rlf	___lwdiv@divisor+1,f
  4701  0371  0B89               	decfsz	9,f
  4702  0372  2B6F               	goto	u1495
  4703  0373  3001               	movlw	1
  4704  0374  00F9               	movwf	??___lwdiv
  4705  0375  0879               	movf	??___lwdiv,w
  4706  0376  07A4               	addwf	___lwdiv@counter,f
  4707  0377  2B6C               	goto	l2161
  4708  0378                     l2163:
  4709  0378  3001               	movlw	1
  4710  0379                     u1515:
  4711  0379  35A5               	lslf	___lwdiv@quotient,f
  4712  037A  0DA6               	rlf	___lwdiv@quotient+1,f
  4713  037B  0B89               	decfsz	9,f
  4714  037C  2B79               	goto	u1515
  4715  037D  0821               	movf	___lwdiv@divisor+1,w
  4716  037E  0223               	subwf	___lwdiv@dividend+1,w
  4717  037F  1D03               	skipz
  4718  0380  2B83               	goto	u1525
  4719  0381  0820               	movf	___lwdiv@divisor,w
  4720  0382  0222               	subwf	___lwdiv@dividend,w
  4721  0383                     u1525:
  4722  0383  1C03               	skipc
  4723  0384  2B8A               	goto	l2169
  4724  0385  0820               	movf	___lwdiv@divisor,w
  4725  0386  02A2               	subwf	___lwdiv@dividend,f
  4726  0387  0821               	movf	___lwdiv@divisor+1,w
  4727  0388  3BA3               	subwfb	___lwdiv@dividend+1,f
  4728  0389  1425               	bsf	___lwdiv@quotient,0
  4729  038A                     l2169:
  4730  038A  3001               	movlw	1
  4731  038B                     u1535:
  4732  038B  36A1               	lsrf	___lwdiv@divisor+1,f
  4733  038C  0CA0               	rrf	___lwdiv@divisor,f
  4734  038D  0B89               	decfsz	9,f
  4735  038E  2B8B               	goto	u1535
  4736  038F  3001               	movlw	1
  4737  0390  02A4               	subwf	___lwdiv@counter,f
  4738  0391  1D03               	btfss	3,2
  4739  0392  2B78               	goto	l2163
  4740  0393                     l2173:
  4741  0393  0826               	movf	___lwdiv@quotient+1,w
  4742  0394  00A1               	movwf	?___lwdiv+1
  4743  0395  0825               	movf	___lwdiv@quotient,w
  4744  0396  00A0               	movwf	?___lwdiv
  4745  0397  0008               	return
  4746  0398                     __end_of___lwdiv:
  4747                           
  4748                           	psect	text10
  4749  03F9                     __ptext10:	
  4750 ;; *************** function _lowBattery *****************
  4751 ;; Defined at:
  4752 ;;		line 161 in file "main.c"
  4753 ;; Parameters:    Size  Location     Type
  4754 ;;		None
  4755 ;; Auto vars:     Size  Location     Type
  4756 ;;		None
  4757 ;; Return value:  Size  Location     Type
  4758 ;;                  1    wreg      void 
  4759 ;; Registers used:
  4760 ;;		wreg, status,2, status,0, pclath, cstack
  4761 ;; Tracked objects:
  4762 ;;		On entry : 0/0
  4763 ;;		On exit  : 0/0
  4764 ;;		Unchanged: 0/0
  4765 ;; Data sizes:     COMMON   BANK0   BANK1   BANK2   BANK3   BANK4   BANK5   BANK6
  4766 ;;      Params:         0       0       0       0       0       0       0       0
  4767 ;;      Locals:         0       0       0       0       0       0       0       0
  4768 ;;      Temps:          0       2       0       0       0       0       0       0
  4769 ;;      Totals:         0       2       0       0       0       0       0       0
  4770 ;;Total ram usage:        2 bytes
  4771 ;; Hardware stack levels used:    1
  4772 ;; Hardware stack levels required when called:    5
  4773 ;; This function calls:
  4774 ;;		_setLEDColor
  4775 ;; This function is called by:
  4776 ;;		_main
  4777 ;; This function uses a non-reentrant model
  4778 ;;
  4779                           
  4780                           
  4781                           ;psect for function _lowBattery
  4782  03F9                     _lowBattery:
  4783                           
  4784                           ;main.c: 162: setLEDColor(0, 255, 255);
  4785                           
  4786                           ;incstack = 0
  4787                           ; Regs used in _lowBattery: [wreg+status,2+status,0+pclath+cstack]
  4788  03F9  30FF               	movlw	255
  4789  03FA  0020               	movlb	0	; select bank0
  4790  03FB  00A2               	movwf	??_lowBattery
  4791  03FC  0822               	movf	??_lowBattery,w
  4792  03FD  00A0               	movwf	setLEDColor@green
  4793  03FE  30FF               	movlw	255
  4794  03FF  00A3               	movwf	??_lowBattery+1
  4795  0400  0823               	movf	??_lowBattery+1,w
  4796  0401  00A1               	movwf	setLEDColor@blue
  4797  0402  3000               	movlw	0
  4798  0403  3184  24ED  3183   	fcall	_setLEDColor
  4799                           
  4800                           ;main.c: 163: _delay((unsigned long)((250)*(4000000/4000.0)));
  4801  0406  3002               	movlw	2
  4802  0407  0020               	movlb	0	; select bank0
  4803  0408  00A3               	movwf	??_lowBattery+1
  4804  0409  3045               	movlw	69
  4805  040A  00A2               	movwf	??_lowBattery
  4806  040B  30A9               	movlw	169
  4807  040C                     u1997:
  4808  040C  0B89               	decfsz	9,f
  4809  040D  2C0C               	goto	u1997
  4810  040E  0BA2               	decfsz	??_lowBattery,f
  4811  040F  2C0C               	goto	u1997
  4812  0410  0BA3               	decfsz	??_lowBattery+1,f
  4813  0411  2C0C               	goto	u1997
  4814  0412  3200               	nop2
  4815                           
  4816                           ;main.c: 164: setLEDColor(0, 0, 0);
  4817  0413  0020               	movlb	0	; select bank0
  4818  0414  01A0               	clrf	setLEDColor@green
  4819  0415  01A1               	clrf	setLEDColor@blue
  4820  0416  3000               	movlw	0
  4821  0417  3184  24ED  3183   	fcall	_setLEDColor
  4822                           
  4823                           ;main.c: 165: _delay((unsigned long)((500)*(4000000/4000.0)));
  4824  041A  3003               	movlw	3
  4825  041B  0020               	movlb	0	; select bank0
  4826  041C  00A3               	movwf	??_lowBattery+1
  4827  041D  308A               	movlw	138
  4828  041E  00A2               	movwf	??_lowBattery
  4829  041F  3055               	movlw	85
  4830  0420                     u2007:
  4831  0420  0B89               	decfsz	9,f
  4832  0421  2C20               	goto	u2007
  4833  0422  0BA2               	decfsz	??_lowBattery,f
  4834  0423  2C20               	goto	u2007
  4835  0424  0BA3               	decfsz	??_lowBattery+1,f
  4836  0425  2C20               	goto	u2007
  4837  0426  3200               	nop2
  4838  0427  0008               	return
  4839  0428                     __end_of_lowBattery:
  4840                           
  4841                           	psect	text11
  4842  04ED                     __ptext11:	
  4843 ;; *************** function _setLEDColor *****************
  4844 ;; Defined at:
  4845 ;;		line 140 in file "main.c"
  4846 ;; Parameters:    Size  Location     Type
  4847 ;;  red             1    wreg     unsigned char 
  4848 ;;  green           1    0[BANK0 ] unsigned char 
  4849 ;;  blue            1    1[BANK0 ] unsigned char 
  4850 ;; Auto vars:     Size  Location     Type
  4851 ;;  red             1    3[COMMON] unsigned char 
  4852 ;; Return value:  Size  Location     Type
  4853 ;;                  1    wreg      void 
  4854 ;; Registers used:
  4855 ;;		wreg, status,2, status,0
  4856 ;; Tracked objects:
  4857 ;;		On entry : 0/0
  4858 ;;		On exit  : 0/0
  4859 ;;		Unchanged: 0/0
  4860 ;; Data sizes:     COMMON   BANK0   BANK1   BANK2   BANK3   BANK4   BANK5   BANK6
  4861 ;;      Params:         0       2       0       0       0       0       0       0
  4862 ;;      Locals:         1       0       0       0       0       0       0       0
  4863 ;;      Temps:          1       0       0       0       0       0       0       0
  4864 ;;      Totals:         2       2       0       0       0       0       0       0
  4865 ;;Total ram usage:        4 bytes
  4866 ;; Hardware stack levels used:    1
  4867 ;; Hardware stack levels required when called:    4
  4868 ;; This function calls:
  4869 ;;		Nothing
  4870 ;; This function is called by:
  4871 ;;		_lowBattery
  4872 ;;		_startUp
  4873 ;;		_selectSomething
  4874 ;;		_selectFrequency
  4875 ;;		_process_remote_command
  4876 ;; This function uses a non-reentrant model
  4877 ;;
  4878                           
  4879                           
  4880                           ;psect for function _setLEDColor
  4881  04ED                     _setLEDColor:
  4882                           
  4883                           ;incstack = 0
  4884                           ; Regs used in _setLEDColor: [wreg+status,2+status,0]
  4885                           ;setLEDColor@red stored from wreg
  4886  04ED  00FA               	movwf	setLEDColor@red
  4887                           
  4888                           ;main.c: 147: if (0 == blue){
  4889  04EE  0020               	movlb	0	; select bank0
  4890  04EF  0821               	movf	setLEDColor@blue,w
  4891  04F0  1D03               	btfss	3,2
  4892  04F1  2CF5               	goto	l2203
  4893                           
  4894                           ;main.c: 148: TRISC |= 0b00100000;
  4895  04F2  0021               	movlb	1	; select bank1
  4896  04F3  168E               	bsf	14,5	;volatile
  4897                           
  4898                           ;main.c: 149: } else {
  4899  04F4  2CFA               	goto	l2205
  4900  04F5                     l2203:
  4901                           
  4902                           ;main.c: 150: TRISC &= 0b11011111;
  4903  04F5  30DF               	movlw	223
  4904  04F6  00F9               	movwf	??_setLEDColor
  4905  04F7  0879               	movf	??_setLEDColor,w
  4906  04F8  0021               	movlb	1	; select bank1
  4907  04F9  058E               	andwf	14,f	;volatile
  4908  04FA                     l2205:
  4909                           
  4910                           ;main.c: 151: };main.c: 152: CCPR1L = 255 - blue;
  4911  04FA  0020               	movlb	0	; select bank0
  4912  04FB  0921               	comf	setLEDColor@blue,w
  4913  04FC  0025               	movlb	5	; select bank5
  4914  04FD  0091               	movwf	17	;volatile
  4915                           
  4916                           ;main.c: 154: PWM3DCH = red;
  4917  04FE  087A               	movf	setLEDColor@red,w
  4918  04FF  002C               	movlb	12	; select bank12
  4919  0500  0098               	movwf	24	;volatile
  4920                           
  4921                           ;main.c: 156: PWM4DCH = green;
  4922  0501  0020               	movlb	0	; select bank0
  4923  0502  0820               	movf	setLEDColor@green,w
  4924  0503  002C               	movlb	12	; select bank12
  4925  0504  009B               	movwf	27	;volatile
  4926  0505  0008               	return
  4927  0506                     __end_of_setLEDColor:
  4928                           
  4929                           	psect	text12
  4930  02EA                     __ptext12:	
  4931 ;; *************** function _initLED *****************
  4932 ;; Defined at:
  4933 ;;		line 99 in file "main.c"
  4934 ;; Parameters:    Size  Location     Type
  4935 ;;		None
  4936 ;; Auto vars:     Size  Location     Type
  4937 ;;		None
  4938 ;; Return value:  Size  Location     Type
  4939 ;;                  1    wreg      void 
  4940 ;; Registers used:
  4941 ;;		wreg, status,2, status,0
  4942 ;; Tracked objects:
  4943 ;;		On entry : 0/0
  4944 ;;		On exit  : 0/0
  4945 ;;		Unchanged: 0/0
  4946 ;; Data sizes:     COMMON   BANK0   BANK1   BANK2   BANK3   BANK4   BANK5   BANK6
  4947 ;;      Params:         0       0       0       0       0       0       0       0
  4948 ;;      Locals:         0       0       0       0       0       0       0       0
  4949 ;;      Temps:          1       0       0       0       0       0       0       0
  4950 ;;      Totals:         1       0       0       0       0       0       0       0
  4951 ;;Total ram usage:        1 bytes
  4952 ;; Hardware stack levels used:    1
  4953 ;; Hardware stack levels required when called:    4
  4954 ;; This function calls:
  4955 ;;		Nothing
  4956 ;; This function is called by:
  4957 ;;		_main
  4958 ;; This function uses a non-reentrant model
  4959 ;;
  4960                           
  4961                           
  4962                           ;psect for function _initLED
  4963  02EA                     _initLED:
  4964                           
  4965                           ;main.c: 102: PR2 = 255;
  4966                           
  4967                           ;incstack = 0
  4968                           ; Regs used in _initLED: [wreg+status,2+status,0]
  4969  02EA  30FF               	movlw	255
  4970  02EB  0020               	movlb	0	; select bank0
  4971  02EC  009B               	movwf	27	;volatile
  4972                           
  4973                           ;main.c: 103: T2CONbits.T2CKPS = 0b10;
  4974  02ED  081C               	movf	28,w	;volatile
  4975  02EE  39FC               	andlw	-4
  4976  02EF  3802               	iorlw	2
  4977  02F0  009C               	movwf	28	;volatile
  4978                           
  4979                           ;main.c: 104: T2CONbits.TMR2ON = 1;
  4980  02F1  151C               	bsf	28,2	;volatile
  4981                           
  4982                           ;main.c: 108: TRISC |= 0b00010000;
  4983  02F2  0021               	movlb	1	; select bank1
  4984  02F3  160E               	bsf	14,4	;volatile
  4985                           
  4986                           ;main.c: 109: RC4PPS = 0b01110;
  4987  02F4  300E               	movlw	14
  4988  02F5  003D               	movlb	29	; select bank29
  4989  02F6  00A4               	movwf	36	;volatile
  4990                           
  4991                           ;main.c: 110: CCPTMRSbits.P3TSEL = 0b00;
  4992  02F7  30CF               	movlw	-49
  4993  02F8  0025               	movlb	5	; select bank5
  4994  02F9  059E               	andwf	30,f	;volatile
  4995                           
  4996                           ;main.c: 111: PWM3DCH = 0;
  4997  02FA  002C               	movlb	12	; select bank12
  4998  02FB  0198               	clrf	24	;volatile
  4999                           
  5000                           ;main.c: 112: PWM3DCLbits.PWM3DCL = 0;
  5001  02FC  303F               	movlw	-193
  5002  02FD  0597               	andwf	23,f	;volatile
  5003                           
  5004                           ;main.c: 113: PWM3CONbits.PWM3POL = 1;
  5005  02FE  1619               	bsf	25,4	;volatile
  5006                           
  5007                           ;main.c: 114: TRISC &= 0b11101111;
  5008  02FF  30EF               	movlw	239
  5009  0300  00F9               	movwf	??_initLED
  5010  0301  0879               	movf	??_initLED,w
  5011  0302  0021               	movlb	1	; select bank1
  5012  0303  058E               	andwf	14,f	;volatile
  5013                           
  5014                           ;main.c: 115: PWM3CONbits.PWM3EN = 1;
  5015  0304  002C               	movlb	12	; select bank12
  5016  0305  1799               	bsf	25,7	;volatile
  5017                           
  5018                           ;main.c: 119: TRISA |= 0b00100000;
  5019  0306  0021               	movlb	1	; select bank1
  5020  0307  168C               	bsf	12,5	;volatile
  5021                           
  5022                           ;main.c: 120: RA5PPS = 0b01111;
  5023  0308  300F               	movlw	15
  5024  0309  003D               	movlb	29	; select bank29
  5025  030A  0095               	movwf	21	;volatile
  5026                           
  5027                           ;main.c: 121: CCPTMRSbits.P4TSEL = 0b00;
  5028  030B  303F               	movlw	-193
  5029  030C  0025               	movlb	5	; select bank5
  5030  030D  059E               	andwf	30,f	;volatile
  5031                           
  5032                           ;main.c: 122: PWM4DCH = 0;
  5033  030E  002C               	movlb	12	; select bank12
  5034  030F  019B               	clrf	27	;volatile
  5035                           
  5036                           ;main.c: 123: PWM4DCLbits.PWM4DCL = 0;
  5037  0310  303F               	movlw	-193
  5038  0311  059A               	andwf	26,f	;volatile
  5039                           
  5040                           ;main.c: 124: PWM4CONbits.PWM4POL = 1;
  5041  0312  161C               	bsf	28,4	;volatile
  5042                           
  5043                           ;main.c: 125: TRISA &= 0b11011111;
  5044  0313  30DF               	movlw	223
  5045  0314  00F9               	movwf	??_initLED
  5046  0315  0879               	movf	??_initLED,w
  5047  0316  0021               	movlb	1	; select bank1
  5048  0317  058C               	andwf	12,f	;volatile
  5049                           
  5050                           ;main.c: 126: PWM4CONbits.PWM4EN = 1;
  5051  0318  002C               	movlb	12	; select bank12
  5052  0319  179C               	bsf	28,7	;volatile
  5053                           
  5054                           ;main.c: 132: TRISC |= 0b00100000;
  5055  031A  0021               	movlb	1	; select bank1
  5056  031B  168E               	bsf	14,5	;volatile
  5057                           
  5058                           ;main.c: 133: RC5PPS = 0b01100;
  5059  031C  300C               	movlw	12
  5060  031D  003D               	movlb	29	; select bank29
  5061  031E  00A5               	movwf	37	;volatile
  5062                           
  5063                           ;main.c: 134: CCP1CONbits.CCP1M = 0b1100;
  5064  031F  0025               	movlb	5	; select bank5
  5065  0320  0813               	movf	19,w	;volatile
  5066  0321  39F0               	andlw	-16
  5067  0322  380C               	iorlw	12
  5068  0323  0093               	movwf	19	;volatile
  5069                           
  5070                           ;main.c: 135: CCPR1L = 255;
  5071  0324  30FF               	movlw	255
  5072  0325  0091               	movwf	17	;volatile
  5073                           
  5074                           ;main.c: 136: CCP1CONbits.DC1B = 0x3;
  5075  0326  3030               	movlw	48
  5076  0327  0493               	iorwf	19,f	;volatile
  5077                           
  5078                           ;main.c: 137: TRISC &= 0b11011111;
  5079  0328  30DF               	movlw	223
  5080  0329  00F9               	movwf	??_initLED
  5081  032A  0879               	movf	??_initLED,w
  5082  032B  0021               	movlb	1	; select bank1
  5083  032C  058E               	andwf	14,f	;volatile
  5084  032D  0008               	return
  5085  032E                     __end_of_initLED:
  5086                           
  5087                           	psect	text13
  5088  0428                     __ptext13:	
  5089 ;; *************** function _battery_voltage *****************
  5090 ;; Defined at:
  5091 ;;		line 74 in file "main.c"
  5092 ;; Parameters:    Size  Location     Type
  5093 ;;		None
  5094 ;; Auto vars:     Size  Location     Type
  5095 ;;		None
  5096 ;; Return value:  Size  Location     Type
  5097 ;;                  2   14[BANK0 ] unsigned int 
  5098 ;; Registers used:
  5099 ;;		wreg, status,2, status,0, pclath, cstack
  5100 ;; Tracked objects:
  5101 ;;		On entry : 0/0
  5102 ;;		On exit  : 0/0
  5103 ;;		Unchanged: 0/0
  5104 ;; Data sizes:     COMMON   BANK0   BANK1   BANK2   BANK3   BANK4   BANK5   BANK6
  5105 ;;      Params:         0       2       0       0       0       0       0       0
  5106 ;;      Locals:         0       0       0       0       0       0       0       0
  5107 ;;      Temps:          0       0       0       0       0       0       0       0
  5108 ;;      Totals:         0       2       0       0       0       0       0       0
  5109 ;;Total ram usage:        2 bytes
  5110 ;; Hardware stack levels used:    1
  5111 ;; Hardware stack levels required when called:    5
  5112 ;; This function calls:
  5113 ;;		___aldiv
  5114 ;; This function is called by:
  5115 ;;		_main
  5116 ;; This function uses a non-reentrant model
  5117 ;;
  5118                           
  5119                           
  5120                           ;psect for function _battery_voltage
  5121  0428                     _battery_voltage:
  5122                           
  5123                           ;main.c: 76: FVRCON = 0b10000001;
  5124                           
  5125                           ;incstack = 0
  5126                           ; Regs used in _battery_voltage: [wreg+status,2+status,0+pclath+cstack]
  5127  0428  3081               	movlw	129
  5128  0429  0022               	movlb	2	; select bank2
  5129  042A  0097               	movwf	23	;volatile
  5130                           
  5131                           ;main.c: 77: ADCON0 = 0b01111101;
  5132  042B  307D               	movlw	125
  5133  042C  0021               	movlb	1	; select bank1
  5134  042D  009D               	movwf	29	;volatile
  5135                           
  5136                           ;main.c: 78: ADCON1 = 0b10010000;
  5137  042E  3090               	movlw	144
  5138  042F  009E               	movwf	30	;volatile
  5139  0430                     l418:	
  5140                           ;main.c: 79: while(!FVRCONbits.FVRRDY){ }
  5141                           
  5142  0430  0022               	movlb	2	; select bank2
  5143  0431  1F17               	btfss	23,6	;volatile
  5144  0432  2C30               	goto	l418
  5145                           
  5146                           ;main.c: 80: __nop();
  5147  0433  0000               	nop
  5148                           
  5149                           ;main.c: 81: __nop();
  5150  0434  0000               	nop
  5151                           
  5152                           ;main.c: 82: __nop();
  5153  0435  0000               	nop
  5154                           
  5155                           ;main.c: 83: __nop();
  5156  0436  0000               	nop
  5157                           
  5158                           ;main.c: 84: __nop();
  5159  0437  0000               	nop
  5160                           
  5161                           ;main.c: 85: ADCON0bits.GO_nDONE = 1;
  5162  0438  0021               	movlb	1	; select bank1
  5163  0439  149D               	bsf	29,1	;volatile
  5164  043A                     l421:	
  5165                           ;main.c: 86: while(ADCON0bits.GO_nDONE){ }
  5166                           
  5167  043A  189D               	btfsc	29,1	;volatile
  5168  043B  2C3A               	goto	l421
  5169                           
  5170                           ;main.c: 87: ADCON0bits.ADON = 0;
  5171  043C  101D               	bcf	29,0	;volatile
  5172                           
  5173                           ;main.c: 92: return 1047552L / ADRES;
  5174  043D  081B               	movf	27,w	;volatile
  5175  043E  0020               	movlb	0	; select bank0
  5176  043F  00A0               	movwf	___aldiv@divisor
  5177  0440  0021               	movlb	1	; select bank1
  5178  0441  081C               	movf	28,w	;volatile
  5179  0442  0020               	movlb	0	; select bank0
  5180  0443  00A1               	movwf	___aldiv@divisor+1
  5181  0444  01A2               	clrf	___aldiv@divisor+2
  5182  0445  01A3               	clrf	___aldiv@divisor+3
  5183  0446  3000               	movlw	0
  5184  0447  00A7               	movwf	___aldiv@dividend+3
  5185  0448  300F               	movlw	15
  5186  0449  00A6               	movwf	___aldiv@dividend+2
  5187  044A  30FC               	movlw	252
  5188  044B  00A5               	movwf	___aldiv@dividend+1
  5189  044C  3000               	movlw	0
  5190  044D  00A4               	movwf	___aldiv@dividend
  5191  044E  3181  21B2         	fcall	___aldiv
  5192  0450  0020               	movlb	0	; select bank0
  5193  0451  0821               	movf	?___aldiv+1,w
  5194  0452  00AF               	movwf	?_battery_voltage+1
  5195  0453  0820               	movf	?___aldiv,w
  5196  0454  00AE               	movwf	?_battery_voltage
  5197  0455  0008               	return
  5198  0456                     __end_of_battery_voltage:
  5199                           
  5200                           	psect	text14
  5201  01B2                     __ptext14:	
  5202 ;; *************** function ___aldiv *****************
  5203 ;; Defined at:
  5204 ;;		line 5 in file "/opt/microchip/xc8/v2.20/pic/sources/c90/common/aldiv.c"
  5205 ;; Parameters:    Size  Location     Type
  5206 ;;  divisor         4    0[BANK0 ] long 
  5207 ;;  dividend        4    4[BANK0 ] long 
  5208 ;; Auto vars:     Size  Location     Type
  5209 ;;  quotient        4   10[BANK0 ] long 
  5210 ;;  sign            1    9[BANK0 ] unsigned char 
  5211 ;;  counter         1    8[BANK0 ] unsigned char 
  5212 ;; Return value:  Size  Location     Type
  5213 ;;                  4    0[BANK0 ] long 
  5214 ;; Registers used:
  5215 ;;		wreg, status,2, status,0
  5216 ;; Tracked objects:
  5217 ;;		On entry : 0/0
  5218 ;;		On exit  : 0/0
  5219 ;;		Unchanged: 0/0
  5220 ;; Data sizes:     COMMON   BANK0   BANK1   BANK2   BANK3   BANK4   BANK5   BANK6
  5221 ;;      Params:         0       8       0       0       0       0       0       0
  5222 ;;      Locals:         0       6       0       0       0       0       0       0
  5223 ;;      Temps:          1       0       0       0       0       0       0       0
  5224 ;;      Totals:         1      14       0       0       0       0       0       0
  5225 ;;Total ram usage:       15 bytes
  5226 ;; Hardware stack levels used:    1
  5227 ;; Hardware stack levels required when called:    4
  5228 ;; This function calls:
  5229 ;;		Nothing
  5230 ;; This function is called by:
  5231 ;;		_battery_voltage
  5232 ;;		_setCurrent
  5233 ;; This function uses a non-reentrant model
  5234 ;;
  5235                           
  5236                           
  5237                           ;psect for function ___aldiv
  5238  01B2                     ___aldiv:
  5239                           
  5240                           ;incstack = 0
  5241                           ; Regs used in ___aldiv: [wreg+status,2+status,0]
  5242  01B2  0020               	movlb	0	; select bank0
  5243  01B3  01A9               	clrf	___aldiv@sign
  5244  01B4  1FA3               	btfss	___aldiv@divisor+3,7
  5245  01B5  29C3               	goto	l659
  5246  01B6  09A0               	comf	___aldiv@divisor,f
  5247  01B7  09A1               	comf	___aldiv@divisor+1,f
  5248  01B8  09A2               	comf	___aldiv@divisor+2,f
  5249  01B9  09A3               	comf	___aldiv@divisor+3,f
  5250  01BA  0AA0               	incf	___aldiv@divisor,f
  5251  01BB  1903               	skipnz
  5252  01BC  0AA1               	incf	___aldiv@divisor+1,f
  5253  01BD  1903               	skipnz
  5254  01BE  0AA2               	incf	___aldiv@divisor+2,f
  5255  01BF  1903               	skipnz
  5256  01C0  0AA3               	incf	___aldiv@divisor+3,f
  5257  01C1  01A9               	clrf	___aldiv@sign
  5258  01C2  0AA9               	incf	___aldiv@sign,f
  5259  01C3                     l659:
  5260  01C3  1FA7               	btfss	___aldiv@dividend+3,7
  5261  01C4  29D4               	goto	l2291
  5262  01C5  09A4               	comf	___aldiv@dividend,f
  5263  01C6  09A5               	comf	___aldiv@dividend+1,f
  5264  01C7  09A6               	comf	___aldiv@dividend+2,f
  5265  01C8  09A7               	comf	___aldiv@dividend+3,f
  5266  01C9  0AA4               	incf	___aldiv@dividend,f
  5267  01CA  1903               	skipnz
  5268  01CB  0AA5               	incf	___aldiv@dividend+1,f
  5269  01CC  1903               	skipnz
  5270  01CD  0AA6               	incf	___aldiv@dividend+2,f
  5271  01CE  1903               	skipnz
  5272  01CF  0AA7               	incf	___aldiv@dividend+3,f
  5273  01D0  3001               	movlw	1
  5274  01D1  00F9               	movwf	??___aldiv
  5275  01D2  0879               	movf	??___aldiv,w
  5276  01D3  06A9               	xorwf	___aldiv@sign,f
  5277  01D4                     l2291:
  5278  01D4  3000               	movlw	0
  5279  01D5  00AD               	movwf	___aldiv@quotient+3
  5280  01D6  3000               	movlw	0
  5281  01D7  00AC               	movwf	___aldiv@quotient+2
  5282  01D8  3000               	movlw	0
  5283  01D9  00AB               	movwf	___aldiv@quotient+1
  5284  01DA  3000               	movlw	0
  5285  01DB  00AA               	movwf	___aldiv@quotient
  5286  01DC  0823               	movf	___aldiv@divisor+3,w
  5287  01DD  0422               	iorwf	___aldiv@divisor+2,w
  5288  01DE  0421               	iorwf	___aldiv@divisor+1,w
  5289  01DF  0420               	iorwf	___aldiv@divisor,w
  5290  01E0  1903               	skipnz
  5291  01E1  2A1D               	goto	l2313
  5292  01E2  01A8               	clrf	___aldiv@counter
  5293  01E3  0AA8               	incf	___aldiv@counter,f
  5294  01E4                     l2299:
  5295  01E4  1BA3               	btfsc	___aldiv@divisor+3,7
  5296  01E5  29F2               	goto	l2301
  5297  01E6  3001               	movlw	1
  5298  01E7                     u1725:
  5299  01E7  35A0               	lslf	___aldiv@divisor,f
  5300  01E8  0DA1               	rlf	___aldiv@divisor+1,f
  5301  01E9  0DA2               	rlf	___aldiv@divisor+2,f
  5302  01EA  0DA3               	rlf	___aldiv@divisor+3,f
  5303  01EB  0B89               	decfsz	9,f
  5304  01EC  29E7               	goto	u1725
  5305  01ED  3001               	movlw	1
  5306  01EE  00F9               	movwf	??___aldiv
  5307  01EF  0879               	movf	??___aldiv,w
  5308  01F0  07A8               	addwf	___aldiv@counter,f
  5309  01F1  29E4               	goto	l2299
  5310  01F2                     l2301:
  5311  01F2  3001               	movlw	1
  5312  01F3                     u1745:
  5313  01F3  35AA               	lslf	___aldiv@quotient,f
  5314  01F4  0DAB               	rlf	___aldiv@quotient+1,f
  5315  01F5  0DAC               	rlf	___aldiv@quotient+2,f
  5316  01F6  0DAD               	rlf	___aldiv@quotient+3,f
  5317  01F7  0B89               	decfsz	9,f
  5318  01F8  29F3               	goto	u1745
  5319  01F9  0823               	movf	___aldiv@divisor+3,w
  5320  01FA  0227               	subwf	___aldiv@dividend+3,w
  5321  01FB  1D03               	skipz
  5322  01FC  2A07               	goto	u1755
  5323  01FD  0822               	movf	___aldiv@divisor+2,w
  5324  01FE  0226               	subwf	___aldiv@dividend+2,w
  5325  01FF  1D03               	skipz
  5326  0200  2A07               	goto	u1755
  5327  0201  0821               	movf	___aldiv@divisor+1,w
  5328  0202  0225               	subwf	___aldiv@dividend+1,w
  5329  0203  1D03               	skipz
  5330  0204  2A07               	goto	u1755
  5331  0205  0820               	movf	___aldiv@divisor,w
  5332  0206  0224               	subwf	___aldiv@dividend,w
  5333  0207                     u1755:
  5334  0207  1C03               	skipc
  5335  0208  2A12               	goto	l2309
  5336  0209  0820               	movf	___aldiv@divisor,w
  5337  020A  02A4               	subwf	___aldiv@dividend,f
  5338  020B  0821               	movf	___aldiv@divisor+1,w
  5339  020C  3BA5               	subwfb	___aldiv@dividend+1,f
  5340  020D  0822               	movf	___aldiv@divisor+2,w
  5341  020E  3BA6               	subwfb	___aldiv@dividend+2,f
  5342  020F  0823               	movf	___aldiv@divisor+3,w
  5343  0210  3BA7               	subwfb	___aldiv@dividend+3,f
  5344  0211  142A               	bsf	___aldiv@quotient,0
  5345  0212                     l2309:
  5346  0212  3001               	movlw	1
  5347  0213                     u1765:
  5348  0213  36A3               	lsrf	___aldiv@divisor+3,f
  5349  0214  0CA2               	rrf	___aldiv@divisor+2,f
  5350  0215  0CA1               	rrf	___aldiv@divisor+1,f
  5351  0216  0CA0               	rrf	___aldiv@divisor,f
  5352  0217  0B89               	decfsz	9,f
  5353  0218  2A13               	goto	u1765
  5354  0219  3001               	movlw	1
  5355  021A  02A8               	subwf	___aldiv@counter,f
  5356  021B  1D03               	btfss	3,2
  5357  021C  29F2               	goto	l2301
  5358  021D                     l2313:
  5359  021D  0829               	movf	___aldiv@sign,w
  5360  021E  1903               	btfsc	3,2
  5361  021F  2A2B               	goto	l2317
  5362  0220  09AA               	comf	___aldiv@quotient,f
  5363  0221  09AB               	comf	___aldiv@quotient+1,f
  5364  0222  09AC               	comf	___aldiv@quotient+2,f
  5365  0223  09AD               	comf	___aldiv@quotient+3,f
  5366  0224  0AAA               	incf	___aldiv@quotient,f
  5367  0225  1903               	skipnz
  5368  0226  0AAB               	incf	___aldiv@quotient+1,f
  5369  0227  1903               	skipnz
  5370  0228  0AAC               	incf	___aldiv@quotient+2,f
  5371  0229  1903               	skipnz
  5372  022A  0AAD               	incf	___aldiv@quotient+3,f
  5373  022B                     l2317:
  5374  022B  082D               	movf	___aldiv@quotient+3,w
  5375  022C  00A3               	movwf	?___aldiv+3
  5376  022D  082C               	movf	___aldiv@quotient+2,w
  5377  022E  00A2               	movwf	?___aldiv+2
  5378  022F  082B               	movf	___aldiv@quotient+1,w
  5379  0230  00A1               	movwf	?___aldiv+1
  5380  0231  082A               	movf	___aldiv@quotient,w
  5381  0232  00A0               	movwf	?___aldiv
  5382  0233  0008               	return
  5383  0234                     __end_of___aldiv:
  5384                           
  5385                           	psect	text15
  5386  04CF                     __ptext15:	
  5387 ;; *************** function _SYSTEM_Initialize *****************
  5388 ;; Defined at:
  5389 ;;		line 50 in file "mcc_generated_files/mcc.c"
  5390 ;; Parameters:    Size  Location     Type
  5391 ;;		None
  5392 ;; Auto vars:     Size  Location     Type
  5393 ;;		None
  5394 ;; Return value:  Size  Location     Type
  5395 ;;                  1    wreg      void 
  5396 ;; Registers used:
  5397 ;;		wreg, status,2, status,0, pclath, cstack
  5398 ;; Tracked objects:
  5399 ;;		On entry : 0/0
  5400 ;;		On exit  : 0/0
  5401 ;;		Unchanged: 0/0
  5402 ;; Data sizes:     COMMON   BANK0   BANK1   BANK2   BANK3   BANK4   BANK5   BANK6
  5403 ;;      Params:         0       0       0       0       0       0       0       0
  5404 ;;      Locals:         0       0       0       0       0       0       0       0
  5405 ;;      Temps:          0       0       0       0       0       0       0       0
  5406 ;;      Totals:         0       0       0       0       0       0       0       0
  5407 ;;Total ram usage:        0 bytes
  5408 ;; Hardware stack levels used:    1
  5409 ;; Hardware stack levels required when called:    6
  5410 ;; This function calls:
  5411 ;;		_DAC_Initialize
  5412 ;;		_EUSART_Initialize
  5413 ;;		_EXT_INT_Initialize
  5414 ;;		_OPA1_Initialize
  5415 ;;		_OPA2_Initialize
  5416 ;;		_OSCILLATOR_Initialize
  5417 ;;		_PIN_MANAGER_Initialize
  5418 ;;		_TMR0_Initialize
  5419 ;;		_TMR2_Initialize
  5420 ;;		_WDT_Initialize
  5421 ;; This function is called by:
  5422 ;;		_main
  5423 ;; This function uses a non-reentrant model
  5424 ;;
  5425                           
  5426                           
  5427                           ;psect for function _SYSTEM_Initialize
  5428  04CF                     _SYSTEM_Initialize:
  5429                           
  5430                           ;mcc.c: 53: PIN_MANAGER_Initialize();
  5431                           
  5432                           ;incstack = 0
  5433                           ; Regs used in _SYSTEM_Initialize: [wreg+status,2+status,0+pclath+cstack]
  5434  04CF  3183  2398  3184   	fcall	_PIN_MANAGER_Initialize
  5435                           
  5436                           ;mcc.c: 54: OSCILLATOR_Initialize();
  5437  04D2  3185  2565  3184   	fcall	_OSCILLATOR_Initialize
  5438                           
  5439                           ;mcc.c: 55: WDT_Initialize();
  5440  04D5  3185  259A  3184   	fcall	_WDT_Initialize
  5441                           
  5442                           ;mcc.c: 56: DAC_Initialize();
  5443  04D8  3185  258B  3184   	fcall	_DAC_Initialize
  5444                           
  5445                           ;mcc.c: 57: OPA1_Initialize();
  5446  04DB  3185  25A2  3184   	fcall	_OPA1_Initialize
  5447                           
  5448                           ;mcc.c: 58: OPA2_Initialize();
  5449  04DE  3185  259E  3184   	fcall	_OPA2_Initialize
  5450                           
  5451                           ;mcc.c: 59: TMR2_Initialize();
  5452  04E1  3185  255D  3184   	fcall	_TMR2_Initialize
  5453                           
  5454                           ;mcc.c: 60: EXT_INT_Initialize();
  5455  04E4  3185  252A  3184   	fcall	_EXT_INT_Initialize
  5456                           
  5457                           ;mcc.c: 61: TMR0_Initialize();
  5458  04E7  3185  254B  3184   	fcall	_TMR0_Initialize
  5459                           
  5460                           ;mcc.c: 62: EUSART_Initialize();
  5461  04EA  3184  24AB         	fcall	_EUSART_Initialize
  5462  04EC  0008               	return
  5463  04ED                     __end_of_SYSTEM_Initialize:
  5464                           
  5465                           	psect	text16
  5466  059A                     __ptext16:	
  5467 ;; *************** function _WDT_Initialize *****************
  5468 ;; Defined at:
  5469 ;;		line 77 in file "mcc_generated_files/mcc.c"
  5470 ;; Parameters:    Size  Location     Type
  5471 ;;		None
  5472 ;; Auto vars:     Size  Location     Type
  5473 ;;		None
  5474 ;; Return value:  Size  Location     Type
  5475 ;;                  1    wreg      void 
  5476 ;; Registers used:
  5477 ;;		wreg
  5478 ;; Tracked objects:
  5479 ;;		On entry : 0/0
  5480 ;;		On exit  : 0/0
  5481 ;;		Unchanged: 0/0
  5482 ;; Data sizes:     COMMON   BANK0   BANK1   BANK2   BANK3   BANK4   BANK5   BANK6
  5483 ;;      Params:         0       0       0       0       0       0       0       0
  5484 ;;      Locals:         0       0       0       0       0       0       0       0
  5485 ;;      Temps:          0       0       0       0       0       0       0       0
  5486 ;;      Totals:         0       0       0       0       0       0       0       0
  5487 ;;Total ram usage:        0 bytes
  5488 ;; Hardware stack levels used:    1
  5489 ;; Hardware stack levels required when called:    4
  5490 ;; This function calls:
  5491 ;;		Nothing
  5492 ;; This function is called by:
  5493 ;;		_SYSTEM_Initialize
  5494 ;; This function uses a non-reentrant model
  5495 ;;
  5496                           
  5497                           
  5498                           ;psect for function _WDT_Initialize
  5499  059A                     _WDT_Initialize:
  5500                           
  5501                           ;mcc.c: 80: WDTCON = 0x16;
  5502                           
  5503                           ;incstack = 0
  5504                           ; Regs used in _WDT_Initialize: [wreg]
  5505  059A  3016               	movlw	22
  5506  059B  0021               	movlb	1	; select bank1
  5507  059C  0097               	movwf	23	;volatile
  5508  059D  0008               	return
  5509  059E                     __end_of_WDT_Initialize:
  5510                           
  5511                           	psect	text17
  5512  055D                     __ptext17:	
  5513 ;; *************** function _TMR2_Initialize *****************
  5514 ;; Defined at:
  5515 ;;		line 62 in file "mcc_generated_files/tmr2.c"
  5516 ;; Parameters:    Size  Location     Type
  5517 ;;		None
  5518 ;; Auto vars:     Size  Location     Type
  5519 ;;		None
  5520 ;; Return value:  Size  Location     Type
  5521 ;;                  1    wreg      void 
  5522 ;; Registers used:
  5523 ;;		wreg, status,2
  5524 ;; Tracked objects:
  5525 ;;		On entry : 0/0
  5526 ;;		On exit  : 0/0
  5527 ;;		Unchanged: 0/0
  5528 ;; Data sizes:     COMMON   BANK0   BANK1   BANK2   BANK3   BANK4   BANK5   BANK6
  5529 ;;      Params:         0       0       0       0       0       0       0       0
  5530 ;;      Locals:         0       0       0       0       0       0       0       0
  5531 ;;      Temps:          0       0       0       0       0       0       0       0
  5532 ;;      Totals:         0       0       0       0       0       0       0       0
  5533 ;;Total ram usage:        0 bytes
  5534 ;; Hardware stack levels used:    1
  5535 ;; Hardware stack levels required when called:    4
  5536 ;; This function calls:
  5537 ;;		Nothing
  5538 ;; This function is called by:
  5539 ;;		_SYSTEM_Initialize
  5540 ;; This function uses a non-reentrant model
  5541 ;;
  5542                           
  5543                           
  5544                           ;psect for function _TMR2_Initialize
  5545  055D                     _TMR2_Initialize:
  5546                           
  5547                           ;tmr2.c: 67: PR2 = 255;
  5548                           
  5549                           ;incstack = 0
  5550                           ; Regs used in _TMR2_Initialize: [wreg+status,2]
  5551  055D  30FF               	movlw	255
  5552  055E  0020               	movlb	0	; select bank0
  5553  055F  009B               	movwf	27	;volatile
  5554                           
  5555                           ;tmr2.c: 70: TMR2 = 0x00;
  5556  0560  019A               	clrf	26	;volatile
  5557                           
  5558                           ;tmr2.c: 73: PIR1bits.TMR2IF = 0;
  5559  0561  1091               	bcf	17,1	;volatile
  5560                           
  5561                           ;tmr2.c: 76: T2CON = 0x06;
  5562  0562  3006               	movlw	6
  5563  0563  009C               	movwf	28	;volatile
  5564  0564  0008               	return
  5565  0565                     __end_of_TMR2_Initialize:
  5566                           
  5567                           	psect	text18
  5568  054B                     __ptext18:	
  5569 ;; *************** function _TMR0_Initialize *****************
  5570 ;; Defined at:
  5571 ;;		line 63 in file "mcc_generated_files/tmr0.c"
  5572 ;; Parameters:    Size  Location     Type
  5573 ;;		None
  5574 ;; Auto vars:     Size  Location     Type
  5575 ;;		None
  5576 ;; Return value:  Size  Location     Type
  5577 ;;                  1    wreg      void 
  5578 ;; Registers used:
  5579 ;;		wreg, status,2
  5580 ;; Tracked objects:
  5581 ;;		On entry : 0/0
  5582 ;;		On exit  : 0/0
  5583 ;;		Unchanged: 0/0
  5584 ;; Data sizes:     COMMON   BANK0   BANK1   BANK2   BANK3   BANK4   BANK5   BANK6
  5585 ;;      Params:         0       0       0       0       0       0       0       0
  5586 ;;      Locals:         0       0       0       0       0       0       0       0
  5587 ;;      Temps:          0       0       0       0       0       0       0       0
  5588 ;;      Totals:         0       0       0       0       0       0       0       0
  5589 ;;Total ram usage:        0 bytes
  5590 ;; Hardware stack levels used:    1
  5591 ;; Hardware stack levels required when called:    4
  5592 ;; This function calls:
  5593 ;;		Nothing
  5594 ;; This function is called by:
  5595 ;;		_SYSTEM_Initialize
  5596 ;; This function uses a non-reentrant model
  5597 ;;
  5598                           
  5599                           
  5600                           ;psect for function _TMR0_Initialize
  5601  054B                     _TMR0_Initialize:
  5602                           
  5603                           ;tmr0.c: 68: OPTION_REG = (uint8_t)((OPTION_REG & 0xC0) | (0xD5 & 0x3F));
  5604                           
  5605                           ;incstack = 0
  5606                           ; Regs used in _TMR0_Initialize: [wreg+status,2]
  5607  054B  0021               	movlb	1	; select bank1
  5608  054C  0815               	movf	21,w	;volatile
  5609  054D  39C0               	andlw	192
  5610  054E  3815               	iorlw	21
  5611  054F  0095               	movwf	21	;volatile
  5612                           
  5613                           ;tmr0.c: 71: TMR0 = 0x00;
  5614  0550  0020               	movlb	0	; select bank0
  5615  0551  0195               	clrf	21	;volatile
  5616                           
  5617                           ;tmr0.c: 74: timer0ReloadVal= 0;
  5618  0552  01F0               	clrf	_timer0ReloadVal	;volatile
  5619                           
  5620                           ;tmr0.c: 77: INTCONbits.TMR0IF = 0;
  5621  0553  110B               	bcf	11,2	;volatile
  5622  0554  0008               	return
  5623  0555                     __end_of_TMR0_Initialize:
  5624                           
  5625                           	psect	text19
  5626  0398                     __ptext19:	
  5627 ;; *************** function _PIN_MANAGER_Initialize *****************
  5628 ;; Defined at:
  5629 ;;		line 55 in file "mcc_generated_files/pin_manager.c"
  5630 ;; Parameters:    Size  Location     Type
  5631 ;;		None
  5632 ;; Auto vars:     Size  Location     Type
  5633 ;;		None
  5634 ;; Return value:  Size  Location     Type
  5635 ;;                  1    wreg      void 
  5636 ;; Registers used:
  5637 ;;		wreg, status,2
  5638 ;; Tracked objects:
  5639 ;;		On entry : 0/0
  5640 ;;		On exit  : 0/0
  5641 ;;		Unchanged: 0/0
  5642 ;; Data sizes:     COMMON   BANK0   BANK1   BANK2   BANK3   BANK4   BANK5   BANK6
  5643 ;;      Params:         0       0       0       0       0       0       0       0
  5644 ;;      Locals:         0       0       0       0       0       0       0       0
  5645 ;;      Temps:          0       0       0       0       0       0       0       0
  5646 ;;      Totals:         0       0       0       0       0       0       0       0
  5647 ;;Total ram usage:        0 bytes
  5648 ;; Hardware stack levels used:    1
  5649 ;; Hardware stack levels required when called:    4
  5650 ;; This function calls:
  5651 ;;		Nothing
  5652 ;; This function is called by:
  5653 ;;		_SYSTEM_Initialize
  5654 ;; This function uses a non-reentrant model
  5655 ;;
  5656                           
  5657                           
  5658                           ;psect for function _PIN_MANAGER_Initialize
  5659  0398                     _PIN_MANAGER_Initialize:
  5660                           
  5661                           ;pin_manager.c: 60: LATA = 0x00;
  5662                           
  5663                           ;incstack = 0
  5664                           ; Regs used in _PIN_MANAGER_Initialize: [wreg+status,2]
  5665  0398  0022               	movlb	2	; select bank2
  5666  0399  018C               	clrf	12	;volatile
  5667                           
  5668                           ;pin_manager.c: 61: LATB = 0x00;
  5669  039A  018D               	clrf	13	;volatile
  5670                           
  5671                           ;pin_manager.c: 62: LATC = 0x00;
  5672  039B  018E               	clrf	14	;volatile
  5673                           
  5674                           ;pin_manager.c: 67: TRISA = 0x04;
  5675  039C  3004               	movlw	4
  5676  039D  0021               	movlb	1	; select bank1
  5677  039E  008C               	movwf	12	;volatile
  5678                           
  5679                           ;pin_manager.c: 68: TRISB = 0x20;
  5680  039F  3020               	movlw	32
  5681  03A0  008D               	movwf	13	;volatile
  5682                           
  5683                           ;pin_manager.c: 69: TRISC = 0x10;
  5684  03A1  3010               	movlw	16
  5685  03A2  008E               	movwf	14	;volatile
  5686                           
  5687                           ;pin_manager.c: 74: ANSELC = 0x00;
  5688  03A3  0023               	movlb	3	; select bank3
  5689  03A4  018E               	clrf	14	;volatile
  5690                           
  5691                           ;pin_manager.c: 75: ANSELB = 0x00;
  5692  03A5  018D               	clrf	13	;volatile
  5693                           
  5694                           ;pin_manager.c: 76: ANSELA = 0x00;
  5695  03A6  018C               	clrf	12	;volatile
  5696                           
  5697                           ;pin_manager.c: 81: WPUB = 0x00;
  5698  03A7  0024               	movlb	4	; select bank4
  5699  03A8  018D               	clrf	13	;volatile
  5700                           
  5701                           ;pin_manager.c: 82: WPUA = 0x00;
  5702  03A9  018C               	clrf	12	;volatile
  5703                           
  5704                           ;pin_manager.c: 83: WPUC = 0x00;
  5705  03AA  018E               	clrf	14	;volatile
  5706                           
  5707                           ;pin_manager.c: 84: OPTION_REGbits.nWPUEN = 0;
  5708  03AB  0021               	movlb	1	; select bank1
  5709  03AC  1395               	bcf	21,7	;volatile
  5710                           
  5711                           ;pin_manager.c: 89: ODCONA = 0x00;
  5712  03AD  0025               	movlb	5	; select bank5
  5713  03AE  018C               	clrf	12	;volatile
  5714                           
  5715                           ;pin_manager.c: 90: ODCONB = 0x00;
  5716  03AF  018D               	clrf	13	;volatile
  5717                           
  5718                           ;pin_manager.c: 91: ODCONC = 0x00;
  5719  03B0  018E               	clrf	14	;volatile
  5720                           
  5721                           ;pin_manager.c: 96: SLRCONA = 0x37;
  5722  03B1  3037               	movlw	55
  5723  03B2  0026               	movlb	6	; select bank6
  5724  03B3  008C               	movwf	12	;volatile
  5725                           
  5726                           ;pin_manager.c: 97: SLRCONB = 0xF0;
  5727  03B4  30F0               	movlw	240
  5728  03B5  008D               	movwf	13	;volatile
  5729                           
  5730                           ;pin_manager.c: 98: SLRCONC = 0xFF;
  5731  03B6  30FF               	movlw	255
  5732  03B7  008E               	movwf	14	;volatile
  5733                           
  5734                           ;pin_manager.c: 103: INLVLA = 0x3F;
  5735  03B8  303F               	movlw	63
  5736  03B9  0027               	movlb	7	; select bank7
  5737  03BA  008C               	movwf	12	;volatile
  5738                           
  5739                           ;pin_manager.c: 104: INLVLB = 0xF0;
  5740  03BB  30F0               	movlw	240
  5741  03BC  008D               	movwf	13	;volatile
  5742                           
  5743                           ;pin_manager.c: 105: INLVLC = 0xFF;
  5744  03BD  30FF               	movlw	255
  5745  03BE  008E               	movwf	14	;volatile
  5746                           
  5747                           ;pin_manager.c: 113: INTCONbits.IOCIE = 1;
  5748  03BF  158B               	bsf	11,3	;volatile
  5749                           
  5750                           ;pin_manager.c: 116: INTPPS = 0x02;
  5751  03C0  3002               	movlw	2
  5752  03C1  003C               	movlb	28	; select bank28
  5753  03C2  0090               	movwf	16	;volatile
  5754                           
  5755                           ;pin_manager.c: 117: RXPPS = 0x0D;
  5756  03C3  300D               	movlw	13
  5757  03C4  00A4               	movwf	36	;volatile
  5758                           
  5759                           ;pin_manager.c: 118: RB7PPS = 0x14;
  5760  03C5  3014               	movlw	20
  5761  03C6  003D               	movlb	29	; select bank29
  5762  03C7  009F               	movwf	31	;volatile
  5763  03C8  0008               	return
  5764  03C9                     __end_of_PIN_MANAGER_Initialize:
  5765                           
  5766                           	psect	text20
  5767  0565                     __ptext20:	
  5768 ;; *************** function _OSCILLATOR_Initialize *****************
  5769 ;; Defined at:
  5770 ;;		line 65 in file "mcc_generated_files/mcc.c"
  5771 ;; Parameters:    Size  Location     Type
  5772 ;;		None
  5773 ;; Auto vars:     Size  Location     Type
  5774 ;;		None
  5775 ;; Return value:  Size  Location     Type
  5776 ;;                  1    wreg      void 
  5777 ;; Registers used:
  5778 ;;		wreg, status,2
  5779 ;; Tracked objects:
  5780 ;;		On entry : 0/0
  5781 ;;		On exit  : 0/0
  5782 ;;		Unchanged: 0/0
  5783 ;; Data sizes:     COMMON   BANK0   BANK1   BANK2   BANK3   BANK4   BANK5   BANK6
  5784 ;;      Params:         0       0       0       0       0       0       0       0
  5785 ;;      Locals:         0       0       0       0       0       0       0       0
  5786 ;;      Temps:          0       0       0       0       0       0       0       0
  5787 ;;      Totals:         0       0       0       0       0       0       0       0
  5788 ;;Total ram usage:        0 bytes
  5789 ;; Hardware stack levels used:    1
  5790 ;; Hardware stack levels required when called:    4
  5791 ;; This function calls:
  5792 ;;		Nothing
  5793 ;; This function is called by:
  5794 ;;		_SYSTEM_Initialize
  5795 ;; This function uses a non-reentrant model
  5796 ;;
  5797                           
  5798                           
  5799                           ;psect for function _OSCILLATOR_Initialize
  5800  0565                     _OSCILLATOR_Initialize:
  5801                           
  5802                           ;mcc.c: 68: OSCCON = 0x6A;
  5803                           
  5804                           ;incstack = 0
  5805                           ; Regs used in _OSCILLATOR_Initialize: [wreg+status,2]
  5806  0565  306A               	movlw	106
  5807  0566  0021               	movlb	1	; select bank1
  5808  0567  0099               	movwf	25	;volatile
  5809                           
  5810                           ;mcc.c: 70: OSCSTAT = 0x00;
  5811  0568  019A               	clrf	26	;volatile
  5812                           
  5813                           ;mcc.c: 72: OSCTUNE = 0x00;
  5814  0569  0198               	clrf	24	;volatile
  5815                           
  5816                           ;mcc.c: 74: BORCON = 0x00;
  5817  056A  0022               	movlb	2	; select bank2
  5818  056B  0196               	clrf	22	;volatile
  5819  056C  0008               	return
  5820  056D                     __end_of_OSCILLATOR_Initialize:
  5821                           
  5822                           	psect	text21
  5823  059E                     __ptext21:	
  5824 ;; *************** function _OPA2_Initialize *****************
  5825 ;; Defined at:
  5826 ;;		line 58 in file "mcc_generated_files/opa2.c"
  5827 ;; Parameters:    Size  Location     Type
  5828 ;;		None
  5829 ;; Auto vars:     Size  Location     Type
  5830 ;;		None
  5831 ;; Return value:  Size  Location     Type
  5832 ;;                  1    wreg      void 
  5833 ;; Registers used:
  5834 ;;		wreg
  5835 ;; Tracked objects:
  5836 ;;		On entry : 0/0
  5837 ;;		On exit  : 0/0
  5838 ;;		Unchanged: 0/0
  5839 ;; Data sizes:     COMMON   BANK0   BANK1   BANK2   BANK3   BANK4   BANK5   BANK6
  5840 ;;      Params:         0       0       0       0       0       0       0       0
  5841 ;;      Locals:         0       0       0       0       0       0       0       0
  5842 ;;      Temps:          0       0       0       0       0       0       0       0
  5843 ;;      Totals:         0       0       0       0       0       0       0       0
  5844 ;;Total ram usage:        0 bytes
  5845 ;; Hardware stack levels used:    1
  5846 ;; Hardware stack levels required when called:    4
  5847 ;; This function calls:
  5848 ;;		Nothing
  5849 ;; This function is called by:
  5850 ;;		_SYSTEM_Initialize
  5851 ;;		_main
  5852 ;; This function uses a non-reentrant model
  5853 ;;
  5854                           
  5855                           
  5856                           ;psect for function _OPA2_Initialize
  5857  059E                     _OPA2_Initialize:
  5858                           
  5859                           ;opa2.c: 61: OPA2CON = 0xD2;
  5860                           
  5861                           ;incstack = 0
  5862                           ; Regs used in _OPA2_Initialize: [wreg]
  5863  059E  30D2               	movlw	210
  5864  059F  002A               	movlb	10	; select bank10
  5865  05A0  0095               	movwf	21	;volatile
  5866  05A1  0008               	return
  5867  05A2                     __end_of_OPA2_Initialize:
  5868                           
  5869                           	psect	text22
  5870  05A2                     __ptext22:	
  5871 ;; *************** function _OPA1_Initialize *****************
  5872 ;; Defined at:
  5873 ;;		line 58 in file "mcc_generated_files/opa1.c"
  5874 ;; Parameters:    Size  Location     Type
  5875 ;;		None
  5876 ;; Auto vars:     Size  Location     Type
  5877 ;;		None
  5878 ;; Return value:  Size  Location     Type
  5879 ;;                  1    wreg      void 
  5880 ;; Registers used:
  5881 ;;		wreg
  5882 ;; Tracked objects:
  5883 ;;		On entry : 0/0
  5884 ;;		On exit  : 0/0
  5885 ;;		Unchanged: 0/0
  5886 ;; Data sizes:     COMMON   BANK0   BANK1   BANK2   BANK3   BANK4   BANK5   BANK6
  5887 ;;      Params:         0       0       0       0       0       0       0       0
  5888 ;;      Locals:         0       0       0       0       0       0       0       0
  5889 ;;      Temps:          0       0       0       0       0       0       0       0
  5890 ;;      Totals:         0       0       0       0       0       0       0       0
  5891 ;;Total ram usage:        0 bytes
  5892 ;; Hardware stack levels used:    1
  5893 ;; Hardware stack levels required when called:    4
  5894 ;; This function calls:
  5895 ;;		Nothing
  5896 ;; This function is called by:
  5897 ;;		_SYSTEM_Initialize
  5898 ;;		_main
  5899 ;; This function uses a non-reentrant model
  5900 ;;
  5901                           
  5902                           
  5903                           ;psect for function _OPA1_Initialize
  5904  05A2                     _OPA1_Initialize:
  5905                           
  5906                           ;opa1.c: 61: OPA1CON = 0xD2;
  5907                           
  5908                           ;incstack = 0
  5909                           ; Regs used in _OPA1_Initialize: [wreg]
  5910  05A2  30D2               	movlw	210
  5911  05A3  002A               	movlb	10	; select bank10
  5912  05A4  0091               	movwf	17	;volatile
  5913  05A5  0008               	return
  5914  05A6                     __end_of_OPA1_Initialize:
  5915                           
  5916                           	psect	text23
  5917  052A                     __ptext23:	
  5918 ;; *************** function _EXT_INT_Initialize *****************
  5919 ;; Defined at:
  5920 ;;		line 132 in file "mcc_generated_files/ext_int.c"
  5921 ;; Parameters:    Size  Location     Type
  5922 ;;		None
  5923 ;; Auto vars:     Size  Location     Type
  5924 ;;		None
  5925 ;; Return value:  Size  Location     Type
  5926 ;;                  1    wreg      void 
  5927 ;; Registers used:
  5928 ;;		wreg, status,2, status,0, pclath, cstack
  5929 ;; Tracked objects:
  5930 ;;		On entry : 0/0
  5931 ;;		On exit  : 0/0
  5932 ;;		Unchanged: 0/0
  5933 ;; Data sizes:     COMMON   BANK0   BANK1   BANK2   BANK3   BANK4   BANK5   BANK6
  5934 ;;      Params:         0       0       0       0       0       0       0       0
  5935 ;;      Locals:         0       0       0       0       0       0       0       0
  5936 ;;      Temps:          0       0       0       0       0       0       0       0
  5937 ;;      Totals:         0       0       0       0       0       0       0       0
  5938 ;;Total ram usage:        0 bytes
  5939 ;; Hardware stack levels used:    1
  5940 ;; Hardware stack levels required when called:    5
  5941 ;; This function calls:
  5942 ;;		_INT_SetInterruptHandler
  5943 ;; This function is called by:
  5944 ;;		_SYSTEM_Initialize
  5945 ;; This function uses a non-reentrant model
  5946 ;;
  5947                           
  5948                           
  5949                           ;psect for function _EXT_INT_Initialize
  5950  052A                     _EXT_INT_Initialize:
  5951                           
  5952                           ;ext_int.c: 137: (INTCONbits.INTF = 0);
  5953                           
  5954                           ;incstack = 0
  5955                           ; Regs used in _EXT_INT_Initialize: [wreg+status,2+status,0+pclath+cstack]
  5956  052A  108B               	bcf	11,1	;volatile
  5957                           
  5958                           ;ext_int.c: 138: (OPTION_REGbits.INTEDG = 0);
  5959  052B  0021               	movlb	1	; select bank1
  5960  052C  1315               	bcf	21,6	;volatile
  5961                           
  5962                           ;ext_int.c: 140: INT_SetInterruptHandler(INT_DefaultInterruptHandler);
  5963  052D  3034               	movlw	low _INT_DefaultInterruptHandler
  5964  052E  0020               	movlb	0	; select bank0
  5965  052F  00A0               	movwf	INT_SetInterruptHandler@InterruptHandler
  5966  0530  3002               	movlw	high _INT_DefaultInterruptHandler
  5967  0531  00A1               	movwf	INT_SetInterruptHandler@InterruptHandler+1
  5968  0532  3185  2573         	fcall	_INT_SetInterruptHandler
  5969                           
  5970                           ;ext_int.c: 141: (INTCONbits.INTE = 1);
  5971  0534  160B               	bsf	11,4	;volatile
  5972  0535  0008               	return
  5973  0536                     __end_of_EXT_INT_Initialize:
  5974                           
  5975                           	psect	text24
  5976  0573                     __ptext24:	
  5977 ;; *************** function _INT_SetInterruptHandler *****************
  5978 ;; Defined at:
  5979 ;;		line 71 in file "mcc_generated_files/ext_int.c"
  5980 ;; Parameters:    Size  Location     Type
  5981 ;;  InterruptHan    2    0[BANK0 ] PTR FTN()void 
  5982 ;;		 -> INT_DefaultInterruptHandler(1), 
  5983 ;; Auto vars:     Size  Location     Type
  5984 ;;		None
  5985 ;; Return value:  Size  Location     Type
  5986 ;;                  1    wreg      void 
  5987 ;; Registers used:
  5988 ;;		wreg
  5989 ;; Tracked objects:
  5990 ;;		On entry : 0/0
  5991 ;;		On exit  : 0/0
  5992 ;;		Unchanged: 0/0
  5993 ;; Data sizes:     COMMON   BANK0   BANK1   BANK2   BANK3   BANK4   BANK5   BANK6
  5994 ;;      Params:         0       2       0       0       0       0       0       0
  5995 ;;      Locals:         0       0       0       0       0       0       0       0
  5996 ;;      Temps:          0       0       0       0       0       0       0       0
  5997 ;;      Totals:         0       2       0       0       0       0       0       0
  5998 ;;Total ram usage:        2 bytes
  5999 ;; Hardware stack levels used:    1
  6000 ;; Hardware stack levels required when called:    4
  6001 ;; This function calls:
  6002 ;;		Nothing
  6003 ;; This function is called by:
  6004 ;;		_EXT_INT_Initialize
  6005 ;; This function uses a non-reentrant model
  6006 ;;
  6007                           
  6008                           
  6009                           ;psect for function _INT_SetInterruptHandler
  6010  0573                     _INT_SetInterruptHandler:
  6011                           
  6012                           ;ext_int.c: 72: INT_InterruptHandler = InterruptHandler;
  6013                           
  6014                           ;incstack = 0
  6015                           ; Regs used in _INT_SetInterruptHandler: [wreg]
  6016  0573  0020               	movlb	0	; select bank0
  6017  0574  0821               	movf	INT_SetInterruptHandler@InterruptHandler+1,w
  6018  0575  00CE               	movwf	_INT_InterruptHandler+1
  6019  0576  0820               	movf	INT_SetInterruptHandler@InterruptHandler,w
  6020  0577  00CD               	movwf	_INT_InterruptHandler
  6021  0578  0008               	return
  6022  0579                     __end_of_INT_SetInterruptHandler:
  6023                           
  6024                           	psect	text25
  6025  04AB                     __ptext25:	
  6026 ;; *************** function _EUSART_Initialize *****************
  6027 ;; Defined at:
  6028 ;;		line 66 in file "mcc_generated_files/eusart.c"
  6029 ;; Parameters:    Size  Location     Type
  6030 ;;		None
  6031 ;; Auto vars:     Size  Location     Type
  6032 ;;		None
  6033 ;; Return value:  Size  Location     Type
  6034 ;;                  1    wreg      void 
  6035 ;; Registers used:
  6036 ;;		wreg, status,2, status,0, pclath, cstack
  6037 ;; Tracked objects:
  6038 ;;		On entry : 0/0
  6039 ;;		On exit  : 0/0
  6040 ;;		Unchanged: 0/0
  6041 ;; Data sizes:     COMMON   BANK0   BANK1   BANK2   BANK3   BANK4   BANK5   BANK6
  6042 ;;      Params:         0       0       0       0       0       0       0       0
  6043 ;;      Locals:         0       0       0       0       0       0       0       0
  6044 ;;      Temps:          0       0       0       0       0       0       0       0
  6045 ;;      Totals:         0       0       0       0       0       0       0       0
  6046 ;;Total ram usage:        0 bytes
  6047 ;; Hardware stack levels used:    1
  6048 ;; Hardware stack levels required when called:    5
  6049 ;; This function calls:
  6050 ;;		_EUSART_SetErrorHandler
  6051 ;;		_EUSART_SetFramingErrorHandler
  6052 ;;		_EUSART_SetOverrunErrorHandler
  6053 ;; This function is called by:
  6054 ;;		_SYSTEM_Initialize
  6055 ;; This function uses a non-reentrant model
  6056 ;;
  6057                           
  6058                           
  6059                           ;psect for function _EUSART_Initialize
  6060  04AB                     _EUSART_Initialize:
  6061                           
  6062                           ;eusart.c: 71: BAUD1CON = 0x08;
  6063                           
  6064                           ;incstack = 0
  6065                           ; Regs used in _EUSART_Initialize: [wreg+status,2+status,0+pclath+cstack]
  6066  04AB  3008               	movlw	8
  6067  04AC  0023               	movlb	3	; select bank3
  6068  04AD  009F               	movwf	31	;volatile
  6069                           
  6070                           ;eusart.c: 74: RC1STA = 0x90;
  6071  04AE  3090               	movlw	144
  6072  04AF  009D               	movwf	29	;volatile
  6073                           
  6074                           ;eusart.c: 77: TX1STA = 0x24;
  6075  04B0  3024               	movlw	36
  6076  04B1  009E               	movwf	30	;volatile
  6077                           
  6078                           ;eusart.c: 80: SP1BRGL = 0x08;
  6079  04B2  3008               	movlw	8
  6080  04B3  009B               	movwf	27	;volatile
  6081                           
  6082                           ;eusart.c: 83: SP1BRGH = 0x00;
  6083  04B4  019C               	clrf	28	;volatile
  6084                           
  6085                           ;eusart.c: 86: EUSART_SetFramingErrorHandler(EUSART_DefaultFramingErrorHandler);
  6086  04B5  3000               	movlw	0
  6087  04B6  0020               	movlb	0	; select bank0
  6088  04B7  00A0               	movwf	EUSART_SetFramingErrorHandler@interruptHandler
  6089  04B8  3000               	movlw	0
  6090  04B9  00A1               	movwf	EUSART_SetFramingErrorHandler@interruptHandler+1
  6091  04BA  3185  257F  3184   	fcall	_EUSART_SetFramingErrorHandler
  6092                           
  6093                           ;eusart.c: 87: EUSART_SetOverrunErrorHandler(EUSART_DefaultOverrunErrorHandler);
  6094  04BD  3000               	movlw	0
  6095  04BE  0020               	movlb	0	; select bank0
  6096  04BF  00A0               	movwf	EUSART_SetOverrunErrorHandler@interruptHandler
  6097  04C0  3000               	movlw	0
  6098  04C1  00A1               	movwf	EUSART_SetOverrunErrorHandler@interruptHandler+1
  6099  04C2  3185  2579  3184   	fcall	_EUSART_SetOverrunErrorHandler
  6100                           
  6101                           ;eusart.c: 88: EUSART_SetErrorHandler(EUSART_DefaultErrorHandler);
  6102  04C5  3000               	movlw	0
  6103  04C6  0020               	movlb	0	; select bank0
  6104  04C7  00A0               	movwf	EUSART_SetErrorHandler@interruptHandler
  6105  04C8  3000               	movlw	0
  6106  04C9  00A1               	movwf	EUSART_SetErrorHandler@interruptHandler+1
  6107  04CA  3185  2585         	fcall	_EUSART_SetErrorHandler
  6108                           
  6109                           ;eusart.c: 90: eusartRxLastError.status = 0;
  6110  04CC  0020               	movlb	0	; select bank0
  6111  04CD  01CA               	clrf	_eusartRxLastError	;volatile
  6112  04CE  0008               	return
  6113  04CF                     __end_of_EUSART_Initialize:
  6114                           
  6115                           	psect	text26
  6116  0579                     __ptext26:	
  6117 ;; *************** function _EUSART_SetOverrunErrorHandler *****************
  6118 ;; Defined at:
  6119 ;;		line 170 in file "mcc_generated_files/eusart.c"
  6120 ;; Parameters:    Size  Location     Type
  6121 ;;  interruptHan    2    0[BANK0 ] PTR FTN()void 
  6122 ;;		 -> EUSART_DefaultOverrunErrorHandler(1), 
  6123 ;; Auto vars:     Size  Location     Type
  6124 ;;		None
  6125 ;; Return value:  Size  Location     Type
  6126 ;;                  1    wreg      void 
  6127 ;; Registers used:
  6128 ;;		wreg
  6129 ;; Tracked objects:
  6130 ;;		On entry : 0/0
  6131 ;;		On exit  : 0/0
  6132 ;;		Unchanged: 0/0
  6133 ;; Data sizes:     COMMON   BANK0   BANK1   BANK2   BANK3   BANK4   BANK5   BANK6
  6134 ;;      Params:         0       2       0       0       0       0       0       0
  6135 ;;      Locals:         0       0       0       0       0       0       0       0
  6136 ;;      Temps:          0       0       0       0       0       0       0       0
  6137 ;;      Totals:         0       2       0       0       0       0       0       0
  6138 ;;Total ram usage:        2 bytes
  6139 ;; Hardware stack levels used:    1
  6140 ;; Hardware stack levels required when called:    4
  6141 ;; This function calls:
  6142 ;;		Nothing
  6143 ;; This function is called by:
  6144 ;;		_EUSART_Initialize
  6145 ;; This function uses a non-reentrant model
  6146 ;;
  6147                           
  6148                           
  6149                           ;psect for function _EUSART_SetOverrunErrorHandler
  6150  0579                     _EUSART_SetOverrunErrorHandler:
  6151                           
  6152                           ;eusart.c: 171: EUSART_OverrunErrorHandler = interruptHandler;
  6153                           
  6154                           ;incstack = 0
  6155                           ; Regs used in _EUSART_SetOverrunErrorHandler: [wreg]
  6156  0579  0020               	movlb	0	; select bank0
  6157  057A  0821               	movf	EUSART_SetOverrunErrorHandler@interruptHandler+1,w
  6158  057B  00D2               	movwf	_EUSART_OverrunErrorHandler+1
  6159  057C  0820               	movf	EUSART_SetOverrunErrorHandler@interruptHandler,w
  6160  057D  00D1               	movwf	_EUSART_OverrunErrorHandler
  6161  057E  0008               	return
  6162  057F                     __end_of_EUSART_SetOverrunErrorHandler:
  6163                           
  6164                           	psect	text27
  6165  057F                     __ptext27:	
  6166 ;; *************** function _EUSART_SetFramingErrorHandler *****************
  6167 ;; Defined at:
  6168 ;;		line 166 in file "mcc_generated_files/eusart.c"
  6169 ;; Parameters:    Size  Location     Type
  6170 ;;  interruptHan    2    0[BANK0 ] PTR FTN()void 
  6171 ;;		 -> EUSART_DefaultFramingErrorHandler(1), 
  6172 ;; Auto vars:     Size  Location     Type
  6173 ;;		None
  6174 ;; Return value:  Size  Location     Type
  6175 ;;                  1    wreg      void 
  6176 ;; Registers used:
  6177 ;;		wreg
  6178 ;; Tracked objects:
  6179 ;;		On entry : 0/0
  6180 ;;		On exit  : 0/0
  6181 ;;		Unchanged: 0/0
  6182 ;; Data sizes:     COMMON   BANK0   BANK1   BANK2   BANK3   BANK4   BANK5   BANK6
  6183 ;;      Params:         0       2       0       0       0       0       0       0
  6184 ;;      Locals:         0       0       0       0       0       0       0       0
  6185 ;;      Temps:          0       0       0       0       0       0       0       0
  6186 ;;      Totals:         0       2       0       0       0       0       0       0
  6187 ;;Total ram usage:        2 bytes
  6188 ;; Hardware stack levels used:    1
  6189 ;; Hardware stack levels required when called:    4
  6190 ;; This function calls:
  6191 ;;		Nothing
  6192 ;; This function is called by:
  6193 ;;		_EUSART_Initialize
  6194 ;; This function uses a non-reentrant model
  6195 ;;
  6196                           
  6197                           
  6198                           ;psect for function _EUSART_SetFramingErrorHandler
  6199  057F                     _EUSART_SetFramingErrorHandler:
  6200                           
  6201                           ;eusart.c: 167: EUSART_FramingErrorHandler = interruptHandler;
  6202                           
  6203                           ;incstack = 0
  6204                           ; Regs used in _EUSART_SetFramingErrorHandler: [wreg]
  6205  057F  0020               	movlb	0	; select bank0
  6206  0580  0821               	movf	EUSART_SetFramingErrorHandler@interruptHandler+1,w
  6207  0581  00D4               	movwf	_EUSART_FramingErrorHandler+1
  6208  0582  0820               	movf	EUSART_SetFramingErrorHandler@interruptHandler,w
  6209  0583  00D3               	movwf	_EUSART_FramingErrorHandler
  6210  0584  0008               	return
  6211  0585                     __end_of_EUSART_SetFramingErrorHandler:
  6212                           
  6213                           	psect	text28
  6214  0585                     __ptext28:	
  6215 ;; *************** function _EUSART_SetErrorHandler *****************
  6216 ;; Defined at:
  6217 ;;		line 174 in file "mcc_generated_files/eusart.c"
  6218 ;; Parameters:    Size  Location     Type
  6219 ;;  interruptHan    2    0[BANK0 ] PTR FTN()void 
  6220 ;;		 -> EUSART_DefaultErrorHandler(1), 
  6221 ;; Auto vars:     Size  Location     Type
  6222 ;;		None
  6223 ;; Return value:  Size  Location     Type
  6224 ;;                  1    wreg      void 
  6225 ;; Registers used:
  6226 ;;		wreg
  6227 ;; Tracked objects:
  6228 ;;		On entry : 0/0
  6229 ;;		On exit  : 0/0
  6230 ;;		Unchanged: 0/0
  6231 ;; Data sizes:     COMMON   BANK0   BANK1   BANK2   BANK3   BANK4   BANK5   BANK6
  6232 ;;      Params:         0       2       0       0       0       0       0       0
  6233 ;;      Locals:         0       0       0       0       0       0       0       0
  6234 ;;      Temps:          0       0       0       0       0       0       0       0
  6235 ;;      Totals:         0       2       0       0       0       0       0       0
  6236 ;;Total ram usage:        2 bytes
  6237 ;; Hardware stack levels used:    1
  6238 ;; Hardware stack levels required when called:    4
  6239 ;; This function calls:
  6240 ;;		Nothing
  6241 ;; This function is called by:
  6242 ;;		_EUSART_Initialize
  6243 ;; This function uses a non-reentrant model
  6244 ;;
  6245                           
  6246                           
  6247                           ;psect for function _EUSART_SetErrorHandler
  6248  0585                     _EUSART_SetErrorHandler:
  6249                           
  6250                           ;eusart.c: 175: EUSART_ErrorHandler = interruptHandler;
  6251                           
  6252                           ;incstack = 0
  6253                           ; Regs used in _EUSART_SetErrorHandler: [wreg]
  6254  0585  0020               	movlb	0	; select bank0
  6255  0586  0821               	movf	EUSART_SetErrorHandler@interruptHandler+1,w
  6256  0587  00D0               	movwf	_EUSART_ErrorHandler+1
  6257  0588  0820               	movf	EUSART_SetErrorHandler@interruptHandler,w
  6258  0589  00CF               	movwf	_EUSART_ErrorHandler
  6259  058A  0008               	return
  6260  058B                     __end_of_EUSART_SetErrorHandler:
  6261                           
  6262                           	psect	text29
  6263  058B                     __ptext29:	
  6264 ;; *************** function _DAC_Initialize *****************
  6265 ;; Defined at:
  6266 ;;		line 58 in file "mcc_generated_files/dac.c"
  6267 ;; Parameters:    Size  Location     Type
  6268 ;;		None
  6269 ;; Auto vars:     Size  Location     Type
  6270 ;;		None
  6271 ;; Return value:  Size  Location     Type
  6272 ;;                  1    wreg      void 
  6273 ;; Registers used:
  6274 ;;		wreg
  6275 ;; Tracked objects:
  6276 ;;		On entry : 0/0
  6277 ;;		On exit  : 0/0
  6278 ;;		Unchanged: 0/0
  6279 ;; Data sizes:     COMMON   BANK0   BANK1   BANK2   BANK3   BANK4   BANK5   BANK6
  6280 ;;      Params:         0       0       0       0       0       0       0       0
  6281 ;;      Locals:         0       0       0       0       0       0       0       0
  6282 ;;      Temps:          0       0       0       0       0       0       0       0
  6283 ;;      Totals:         0       0       0       0       0       0       0       0
  6284 ;;Total ram usage:        0 bytes
  6285 ;; Hardware stack levels used:    1
  6286 ;; Hardware stack levels required when called:    4
  6287 ;; This function calls:
  6288 ;;		Nothing
  6289 ;; This function is called by:
  6290 ;;		_SYSTEM_Initialize
  6291 ;;		_main
  6292 ;; This function uses a non-reentrant model
  6293 ;;
  6294                           
  6295                           
  6296                           ;psect for function _DAC_Initialize
  6297  058B                     _DAC_Initialize:
  6298                           
  6299                           ;dac.c: 61: DAC1CON0 = 0x80;
  6300                           
  6301                           ;incstack = 0
  6302                           ; Regs used in _DAC_Initialize: [wreg]
  6303  058B  3080               	movlw	128
  6304  058C  0022               	movlb	2	; select bank2
  6305  058D  0098               	movwf	24	;volatile
  6306                           
  6307                           ;dac.c: 63: DAC1CON1 = 0xFF;
  6308  058E  30FF               	movlw	255
  6309  058F  0099               	movwf	25	;volatile
  6310  0590  0008               	return
  6311  0591                     __end_of_DAC_Initialize:
  6312                           
  6313                           	psect	intentry
  6314  0004                     __pintentry:	
  6315 ;; *************** function _INTERRUPT_InterruptManager *****************
  6316 ;; Defined at:
  6317 ;;		line 52 in file "mcc_generated_files/interrupt_manager.c"
  6318 ;; Parameters:    Size  Location     Type
  6319 ;;		None
  6320 ;; Auto vars:     Size  Location     Type
  6321 ;;		None
  6322 ;; Return value:  Size  Location     Type
  6323 ;;                  1    wreg      void 
  6324 ;; Registers used:
  6325 ;;		wreg, fsr0l, fsr0h, fsr1l, fsr1h, status,2, status,0, pclath, cstack
  6326 ;; Tracked objects:
  6327 ;;		On entry : 0/0
  6328 ;;		On exit  : 0/0
  6329 ;;		Unchanged: 0/0
  6330 ;; Data sizes:     COMMON   BANK0   BANK1   BANK2   BANK3   BANK4   BANK5   BANK6
  6331 ;;      Params:         0       0       0       0       0       0       0       0
  6332 ;;      Locals:         0       0       0       0       0       0       0       0
  6333 ;;      Temps:          0       0       0       0       0       0       0       0
  6334 ;;      Totals:         0       0       0       0       0       0       0       0
  6335 ;;Total ram usage:        0 bytes
  6336 ;; Hardware stack levels used:    1
  6337 ;; Hardware stack levels required when called:    3
  6338 ;; This function calls:
  6339 ;;		_INT_ISR
  6340 ;;		_PIN_MANAGER_IOC
  6341 ;; This function is called by:
  6342 ;;		Interrupt level 1
  6343 ;; This function uses a non-reentrant model
  6344 ;;
  6345                           
  6346  0004                     _INTERRUPT_InterruptManager:
  6347                           
  6348                           ;incstack = 0
  6349  0004  147E               	bsf	126,0	;set compiler interrupt flag (level 1)
  6350                           
  6351                           ; Regs used in _INTERRUPT_InterruptManager: [wreg-fsr1h+status,2+status,0+pclath+cstack]
  6352  0005  3180               	pagesel	$
  6353                           
  6354                           ;interrupt_manager.c: 55: if(INTCONbits.INTE == 1 && INTCONbits.INTF == 1)
  6355  0006  1A0B               	btfsc	11,4	;volatile
  6356  0007  1C8B               	btfss	11,1	;volatile
  6357  0008  280D               	goto	i1l126
  6358                           
  6359                           ;interrupt_manager.c: 56: {;interrupt_manager.c: 57: INT_ISR();
  6360  0009  3185  25A6  3180   	fcall	_INT_ISR
  6361                           
  6362                           ;interrupt_manager.c: 58: }
  6363  000C  2812               	goto	i1l130
  6364  000D                     i1l126:
  6365                           
  6366                           ;interrupt_manager.c: 59: else if(INTCONbits.IOCIE == 1 && INTCONbits.IOCIF == 1)
  6367  000D  198B               	btfsc	11,3	;volatile
  6368  000E  1C0B               	btfss	11,0	;volatile
  6369  000F  2812               	goto	i1l130
  6370                           
  6371                           ;interrupt_manager.c: 60: {;interrupt_manager.c: 61: PIN_MANAGER_IOC();
  6372  0010  3185  25AA         	fcall	_PIN_MANAGER_IOC
  6373  0012                     i1l130:	
  6374                           ;interrupt_manager.c: 62: }
  6375                           
  6376  0012  107E               	bcf	126,0	;clear compiler interrupt flag (level 1)
  6377  0013  0009               	retfie
  6378  0014                     __end_of_INTERRUPT_InterruptManager:
  6379                           
  6380                           	psect	text31
  6381  05AA                     __ptext31:	
  6382 ;; *************** function _PIN_MANAGER_IOC *****************
  6383 ;; Defined at:
  6384 ;;		line 121 in file "mcc_generated_files/pin_manager.c"
  6385 ;; Parameters:    Size  Location     Type
  6386 ;;		None
  6387 ;; Auto vars:     Size  Location     Type
  6388 ;;		None
  6389 ;; Return value:  Size  Location     Type
  6390 ;;                  1    wreg      void 
  6391 ;; Registers used:
  6392 ;;		None
  6393 ;; Tracked objects:
  6394 ;;		On entry : 0/0
  6395 ;;		On exit  : 0/0
  6396 ;;		Unchanged: 0/0
  6397 ;; Data sizes:     COMMON   BANK0   BANK1   BANK2   BANK3   BANK4   BANK5   BANK6
  6398 ;;      Params:         0       0       0       0       0       0       0       0
  6399 ;;      Locals:         0       0       0       0       0       0       0       0
  6400 ;;      Temps:          0       0       0       0       0       0       0       0
  6401 ;;      Totals:         0       0       0       0       0       0       0       0
  6402 ;;Total ram usage:        0 bytes
  6403 ;; Hardware stack levels used:    1
  6404 ;; This function calls:
  6405 ;;		Nothing
  6406 ;; This function is called by:
  6407 ;;		_INTERRUPT_InterruptManager
  6408 ;; This function uses a non-reentrant model
  6409 ;;
  6410                           
  6411                           
  6412                           ;psect for function _PIN_MANAGER_IOC
  6413  05AA                     _PIN_MANAGER_IOC:
  6414                           
  6415                           ;incstack = 0
  6416                           ; Regs used in _PIN_MANAGER_IOC: []
  6417  05AA  0008               	return
  6418  05AB                     __end_of_PIN_MANAGER_IOC:
  6419                           
  6420                           	psect	text32
  6421  05A6                     __ptext32:	
  6422 ;; *************** function _INT_ISR *****************
  6423 ;; Defined at:
  6424 ;;		line 54 in file "mcc_generated_files/ext_int.c"
  6425 ;; Parameters:    Size  Location     Type
  6426 ;;		None
  6427 ;; Auto vars:     Size  Location     Type
  6428 ;;		None
  6429 ;; Return value:  Size  Location     Type
  6430 ;;                  1    wreg      void 
  6431 ;; Registers used:
  6432 ;;		wreg, fsr0l, fsr0h, fsr1l, fsr1h, status,2, status,0, pclath, cstack
  6433 ;; Tracked objects:
  6434 ;;		On entry : 0/0
  6435 ;;		On exit  : 0/0
  6436 ;;		Unchanged: 0/0
  6437 ;; Data sizes:     COMMON   BANK0   BANK1   BANK2   BANK3   BANK4   BANK5   BANK6
  6438 ;;      Params:         0       0       0       0       0       0       0       0
  6439 ;;      Locals:         0       0       0       0       0       0       0       0
  6440 ;;      Temps:          0       0       0       0       0       0       0       0
  6441 ;;      Totals:         0       0       0       0       0       0       0       0
  6442 ;;Total ram usage:        0 bytes
  6443 ;; Hardware stack levels used:    1
  6444 ;; Hardware stack levels required when called:    2
  6445 ;; This function calls:
  6446 ;;		_INT_CallBack
  6447 ;; This function is called by:
  6448 ;;		_INTERRUPT_InterruptManager
  6449 ;; This function uses a non-reentrant model
  6450 ;;
  6451                           
  6452                           
  6453                           ;psect for function _INT_ISR
  6454  05A6                     _INT_ISR:
  6455                           
  6456                           ;ext_int.c: 56: (INTCONbits.INTF = 0);
  6457                           
  6458                           ;incstack = 0
  6459                           ; Regs used in _INT_ISR: [wreg-fsr1h+status,2+status,0+pclath+cstack]
  6460  05A6  108B               	bcf	11,1	;volatile
  6461                           
  6462                           ;ext_int.c: 59: INT_CallBack();
  6463  05A7  3185  2536         	fcall	_INT_CallBack
  6464  05A9  0008               	return
  6465  05AA                     __end_of_INT_ISR:
  6466                           
  6467                           	psect	text33
  6468  0536                     __ptext33:	
  6469 ;; *************** function _INT_CallBack *****************
  6470 ;; Defined at:
  6471 ;;		line 62 in file "mcc_generated_files/ext_int.c"
  6472 ;; Parameters:    Size  Location     Type
  6473 ;;		None
  6474 ;; Auto vars:     Size  Location     Type
  6475 ;;		None
  6476 ;; Return value:  Size  Location     Type
  6477 ;;                  1    wreg      void 
  6478 ;; Registers used:
  6479 ;;		wreg, fsr0l, fsr0h, fsr1l, fsr1h, status,2, status,0, pclath, cstack
  6480 ;; Tracked objects:
  6481 ;;		On entry : 0/0
  6482 ;;		On exit  : 0/0
  6483 ;;		Unchanged: 0/0
  6484 ;; Data sizes:     COMMON   BANK0   BANK1   BANK2   BANK3   BANK4   BANK5   BANK6
  6485 ;;      Params:         0       0       0       0       0       0       0       0
  6486 ;;      Locals:         0       0       0       0       0       0       0       0
  6487 ;;      Temps:          0       0       0       0       0       0       0       0
  6488 ;;      Totals:         0       0       0       0       0       0       0       0
  6489 ;;Total ram usage:        0 bytes
  6490 ;; Hardware stack levels used:    1
  6491 ;; Hardware stack levels required when called:    1
  6492 ;; This function calls:
  6493 ;;		Absolute function
  6494 ;;		_INT_DefaultInterruptHandler
  6495 ;; This function is called by:
  6496 ;;		_INT_ISR
  6497 ;; This function uses a non-reentrant model
  6498 ;;
  6499                           
  6500                           
  6501                           ;psect for function _INT_CallBack
  6502  0536                     _INT_CallBack:
  6503                           
  6504                           ;ext_int.c: 65: if(INT_InterruptHandler)
  6505                           
  6506                           ;incstack = 0
  6507                           ; Regs used in _INT_CallBack: [wreg-fsr1h+status,2+status,0+pclath+cstack]
  6508  0536  0020               	movlb	0	; select bank0
  6509  0537  084D               	movf	_INT_InterruptHandler,w
  6510  0538  044E               	iorwf	_INT_InterruptHandler+1,w
  6511  0539  1903               	btfsc	3,2
  6512  053A  0008               	return
  6513                           
  6514                           ;ext_int.c: 66: {;ext_int.c: 67: INT_InterruptHandler();
  6515  053B  084E               	movf	_INT_InterruptHandler+1,w
  6516  053C  008A               	movwf	10
  6517  053D  084D               	movf	_INT_InterruptHandler,w
  6518  053E  000A               	callw
  6519  053F  3185               	pagesel	$
  6520  0540  0008               	return
  6521  0541                     __end_of_INT_CallBack:
  6522                           
  6523                           	psect	text34
  6524  0234                     __ptext34:	
  6525 ;; *************** function _INT_DefaultInterruptHandler *****************
  6526 ;; Defined at:
  6527 ;;		line 75 in file "mcc_generated_files/ext_int.c"
  6528 ;; Parameters:    Size  Location     Type
  6529 ;;		None
  6530 ;; Auto vars:     Size  Location     Type
  6531 ;;  time            1    1[COMMON] unsigned char 
  6532 ;; Return value:  Size  Location     Type
  6533 ;;                  1    wreg      void 
  6534 ;; Registers used:
  6535 ;;		wreg, fsr0l, fsr0h, fsr1l, fsr1h, status,2, status,0
  6536 ;; Tracked objects:
  6537 ;;		On entry : 0/0
  6538 ;;		On exit  : 0/0
  6539 ;;		Unchanged: 0/0
  6540 ;; Data sizes:     COMMON   BANK0   BANK1   BANK2   BANK3   BANK4   BANK5   BANK6
  6541 ;;      Params:         0       0       0       0       0       0       0       0
  6542 ;;      Locals:         1       0       0       0       0       0       0       0
  6543 ;;      Temps:          1       0       0       0       0       0       0       0
  6544 ;;      Totals:         2       0       0       0       0       0       0       0
  6545 ;;Total ram usage:        2 bytes
  6546 ;; Hardware stack levels used:    1
  6547 ;; This function calls:
  6548 ;;		Nothing
  6549 ;; This function is called by:
  6550 ;;		_EXT_INT_Initialize
  6551 ;;		_INT_CallBack
  6552 ;; This function uses a non-reentrant model
  6553 ;;
  6554                           
  6555                           
  6556                           ;psect for function _INT_DefaultInterruptHandler
  6557  0234                     _INT_DefaultInterruptHandler:
  6558                           
  6559                           ;ext_int.c: 77: uint8_t time = TMR0;
  6560                           
  6561                           ;incstack = 0
  6562                           ; Regs used in _INT_DefaultInterruptHandler: [wreg-fsr1h+status,2+status,0]
  6563  0234  0020               	movlb	0	; select bank0
  6564  0235  0815               	movf	21,w	;volatile
  6565  0236  00F7               	movwf	??_INT_DefaultInterruptHandler
  6566  0237  0877               	movf	??_INT_DefaultInterruptHandler,w
  6567  0238  00F8               	movwf	INT_DefaultInterruptHandler@time
  6568                           
  6569                           ;ext_int.c: 78: TMR0 = 0;
  6570  0239  0195               	clrf	21	;volatile
  6571                           
  6572                           ;ext_int.c: 81: if (INTCONbits.TMR0IF){
  6573  023A  190B               	btfsc	11,2	;volatile
  6574                           
  6575                           ;ext_int.c: 82: time = 0;
  6576  023B  01F8               	clrf	INT_DefaultInterruptHandler@time
  6577                           
  6578                           ;ext_int.c: 83: };ext_int.c: 84: INTCONbits.TMR0IF = 0;
  6579  023C  110B               	bcf	11,2	;volatile
  6580                           
  6581                           ;ext_int.c: 86: switch(ir_code.state){
  6582  023D  2A8C               	goto	i1l1729
  6583  023E                     i1l1687:
  6584                           
  6585                           ;ext_int.c: 89: if (time >= 180 && time <= 243){
  6586  023E  30B4               	movlw	180
  6587  023F  0278               	subwf	INT_DefaultInterruptHandler@time,w
  6588  0240  1C03               	skipc
  6589  0241  2A97               	goto	i1l255
  6590  0242  30F4               	movlw	244
  6591  0243  0278               	subwf	INT_DefaultInterruptHandler@time,w
  6592  0244  1803               	skipnc
  6593  0245  2A97               	goto	i1l255
  6594                           
  6595                           ;ext_int.c: 90: ir_code.n_bits = 0;
  6596  0246  01F1               	clrf	_ir_code
  6597                           
  6598                           ;ext_int.c: 91: ir_code.state = STATE_RECEIVING;
  6599  0247  01F2               	clrf	_ir_code+1
  6600  0248  0AF2               	incf	_ir_code+1,f
  6601                           
  6602                           ;ext_int.c: 92: stats[0] = time;
  6603  0249  0878               	movf	INT_DefaultInterruptHandler@time,w
  6604  024A  00F7               	movwf	??_INT_DefaultInterruptHandler
  6605  024B  0877               	movf	??_INT_DefaultInterruptHandler,w
  6606  024C  0021               	movlb	1	; select bank1
  6607  024D  00A0               	movwf	_stats^(0+128)
  6608  024E  2A97               	goto	i1l255
  6609  024F                     i1l1697:
  6610                           
  6611                           ;ext_int.c: 97: ir_code.code <<= 1;
  6612  024F  3001               	movlw	1
  6613  0250                     u82_25:
  6614  0250  35F3               	lslf	_ir_code+2,f
  6615  0251  0DF4               	rlf	_ir_code+3,f
  6616  0252  0DF5               	rlf	_ir_code+4,f
  6617  0253  0DF6               	rlf	_ir_code+5,f
  6618  0254  0B89               	decfsz	9,f
  6619  0255  2A50               	goto	u82_25
  6620                           
  6621                           ;ext_int.c: 98: if (time >= 29 && time <= 41){
  6622  0256  301D               	movlw	29
  6623  0257  0278               	subwf	INT_DefaultInterruptHandler@time,w
  6624  0258  1C03               	skipc
  6625  0259  2A6C               	goto	i1l1709
  6626  025A  302A               	movlw	42
  6627  025B  0278               	subwf	INT_DefaultInterruptHandler@time,w
  6628  025C  1803               	skipnc
  6629  025D  2A6C               	goto	i1l1709
  6630                           
  6631                           ;ext_int.c: 99: stats[1+ir_code.n_bits] = time;
  6632  025E  0878               	movf	INT_DefaultInterruptHandler@time,w
  6633  025F  00F7               	movwf	??_INT_DefaultInterruptHandler
  6634  0260  0871               	movf	_ir_code,w
  6635  0261  3EA1               	addlw	(low ((_stats| 0+1)))& (0+255)
  6636  0262  0086               	movwf	6
  6637  0263  0187               	clrf	7
  6638  0264  0877               	movf	??_INT_DefaultInterruptHandler,w
  6639  0265  0081               	movwf	1
  6640                           
  6641                           ;ext_int.c: 100: ir_code.code |= 1;
  6642  0266  1473               	bsf	_ir_code+2,0
  6643  0267                     i1l1707:
  6644                           
  6645                           ;ext_int.c: 101: ir_code.n_bits++;
  6646  0267  3001               	movlw	1
  6647  0268  00F7               	movwf	??_INT_DefaultInterruptHandler
  6648  0269  0877               	movf	??_INT_DefaultInterruptHandler,w
  6649  026A  07F1               	addwf	_ir_code,f
  6650                           
  6651                           ;ext_int.c: 102: } else if (time >= 14 && time <= 20){
  6652  026B  2A7F               	goto	i1l1719
  6653  026C                     i1l1709:
  6654  026C  300E               	movlw	14
  6655  026D  0278               	subwf	INT_DefaultInterruptHandler@time,w
  6656  026E  1C03               	skipc
  6657  026F  2A7D               	goto	i1l1717
  6658  0270  3015               	movlw	21
  6659  0271  0278               	subwf	INT_DefaultInterruptHandler@time,w
  6660  0272  1803               	skipnc
  6661  0273  2A7D               	goto	i1l1717
  6662                           
  6663                           ;ext_int.c: 103: stats[1+ir_code.n_bits] = time;
  6664  0274  0878               	movf	INT_DefaultInterruptHandler@time,w
  6665  0275  00F7               	movwf	??_INT_DefaultInterruptHandler
  6666  0276  0871               	movf	_ir_code,w
  6667  0277  3EA1               	addlw	(low ((_stats| 0+1)))& (0+255)
  6668  0278  0086               	movwf	6
  6669  0279  0187               	clrf	7
  6670  027A  0877               	movf	??_INT_DefaultInterruptHandler,w
  6671  027B  0081               	movwf	1
  6672  027C  2A67               	goto	i1l1707
  6673  027D                     i1l1717:
  6674                           
  6675                           ;ext_int.c: 107: ir_code.state = STATE_RESET;
  6676  027D  01F2               	clrf	_ir_code+1
  6677                           
  6678                           ;ext_int.c: 108: break;
  6679  027E  2A97               	goto	i1l255
  6680  027F                     i1l1719:
  6681                           
  6682                           ;ext_int.c: 109: };ext_int.c: 110: if (32 == ir_code.n_bits){
  6683  027F  3020               	movlw	32
  6684  0280  0671               	xorwf	_ir_code,w
  6685  0281  1D03               	btfss	3,2
  6686  0282  2A97               	goto	i1l255
  6687                           
  6688                           ;ext_int.c: 113: if (ir_code.command == ((~ir_code.command_b) & 0xff)){
  6689  0283  0973               	comf	_ir_code+2,w
  6690  0284  0674               	xorwf	_ir_code+3,w
  6691  0285  1D03               	skipz
  6692  0286  2A7D               	goto	i1l1717
  6693                           
  6694                           ;ext_int.c: 114: ir_code.state = STATE_DONE;
  6695  0287  3002               	movlw	2
  6696  0288  00F7               	movwf	??_INT_DefaultInterruptHandler
  6697  0289  0877               	movf	??_INT_DefaultInterruptHandler,w
  6698  028A  00F2               	movwf	_ir_code+1
  6699                           
  6700                           ;ext_int.c: 115: } else {
  6701  028B  2A97               	goto	i1l255
  6702  028C                     i1l1729:
  6703  028C  0872               	movf	_ir_code+1,w
  6704                           
  6705                           ; Switch size 1, requested type "simple"
  6706                           ; Number of cases is 3, Range of values is 0 to 2
  6707                           ; switch strategies available:
  6708                           ; Name         Instructions Cycles
  6709                           ; simple_byte           10     6 (average)
  6710                           ; direct_byte           12     6 (fixed)
  6711                           ; jumptable            260     6 (fixed)
  6712                           ;	Chosen strategy is simple_byte
  6713  028D  3A00               	xorlw	0	; case 0
  6714  028E  1903               	skipnz
  6715  028F  2A3E               	goto	i1l1687
  6716  0290  3A01               	xorlw	1	; case 1
  6717  0291  1903               	skipnz
  6718  0292  2A4F               	goto	i1l1697
  6719  0293  3A03               	xorlw	3	; case 2
  6720  0294  1903               	skipnz
  6721  0295  2A97               	goto	i1l255
  6722  0296  2A7D               	goto	i1l1717
  6723  0297                     i1l255:
  6724                           
  6725                           ;ext_int.c: 129: INTCONbits.INTF = 0;
  6726  0297  108B               	bcf	11,1	;volatile
  6727  0298  0008               	return
  6728  0299                     __end_of_INT_DefaultInterruptHandler:
  6729  007E                     btemp	set	126	;btemp
  6730  007E                     int$flags	set	126
  6731  007E                     wtemp0	set	126
  6732                           
  6733                           	psect	config
  6734                           
  6735                           ;Config register CONFIG1 @ 0x8007
  6736                           ;	Oscillator Selection Bits
  6737                           ;	FOSC = INTOSC, INTOSC oscillator: I/O function on CLKIN pin
  6738                           ;	Watchdog Timer Enable
  6739                           ;	WDTE = OFF, WDT disabled
  6740                           ;	Power-up Timer Enable
  6741                           ;	PWRTE = OFF, PWRT disabled
  6742                           ;	MCLR Pin Function Select
  6743                           ;	MCLRE = ON, MCLR/VPP pin function is MCLR
  6744                           ;	Flash Program Memory Code Protection
  6745                           ;	CP = OFF, Program memory code protection is disabled
  6746                           ;	Brown-out Reset Enable
  6747                           ;	BOREN = OFF, Brown-out Reset disabled
  6748                           ;	Clock Out Enable
  6749                           ;	CLKOUTEN = ON, CLKOUT function is enabled on the CLKOUT pin
  6750                           ;	Internal/External Switchover Mode
  6751                           ;	IESO = OFF, Internal/External Switchover Mode is disabled
  6752                           ;	Fail-Safe Clock Monitor Enable
  6753                           ;	FCMEN = ON, Fail-Safe Clock Monitor is enabled
  6754  8007                     	org	32775
  6755  8007  21E4               	dw	8676
  6756                           
  6757                           ;Config register CONFIG2 @ 0x8008
  6758                           ;	Flash Memory Self-Write Protection
  6759                           ;	WRT = OFF, Write protection off
  6760                           ;	Peripheral Pin Select one-way control
  6761                           ;	PPS1WAY = ON, The PPSLOCK bit cannot be cleared once it is set by software
  6762                           ;	Zero-cross detect disable
  6763                           ;	ZCDDIS = ON, Zero-cross detect circuit is disabled at POR
  6764                           ;	Phase Lock Loop enable
  6765                           ;	PLLEN = OFF, 4x PLL is enabled when software sets the SPLLEN bit
  6766                           ;	Stack Overflow/Underflow Reset Enable
  6767                           ;	STVREN = ON, Stack Overflow or Underflow will cause a Reset
  6768                           ;	Brown-out Reset Voltage Selection
  6769                           ;	BORV = LO, Brown-out Reset Voltage (Vbor), low trip point selected.
  6770                           ;	Low-Power Brown Out Reset
  6771                           ;	LPBOR = OFF, Low-Power BOR is disabled
  6772                           ;	Low-Voltage Programming Enable
  6773                           ;	LVP = ON, Low-voltage programming enabled
  6774  8008                     	org	32776
  6775  8008  3EFF               	dw	16127

Data Sizes:
    Strings     40
    Constant    10
    Data        0
    BSS         54
    Persistent  40
    Stack       0

Auto Spaces:
    Space          Size  Autos    Used
    COMMON           14      5      12
    BANK0            80     31      53
    BANK1            80      0      33
    BANK2            80      0       0
    BANK3            80      0       0
    BANK4            80      0       0
    BANK5            80      0       0
    BANK6            16      0       0

Pointer List with Targets:

    printf@f	PTR const unsigned char  size(2) Largest target is 21
		 -> STR_4(CODE[15]), STR_3(CODE[4]), STR_2(CODE[4]), STR_1(CODE[21]), 

    printf@ap	PTR void [1] size(1) Largest target is 2
		 -> ?_printf(BANK0[2]), 

    process_remote_command@code	PTR struct . size(1) Largest target is 6
		 -> ir_code(COMMON[6]), 

    INT_SetInterruptHandler@InterruptHandler	PTR FTN()void  size(2) Largest target is 1
		 -> INT_DefaultInterruptHandler(), 

    INT_InterruptHandler	PTR FTN()void  size(2) Largest target is 1
		 -> INT_DefaultInterruptHandler(), Absolute function(), 

    EUSART_SetErrorHandler@interruptHandler	PTR FTN()void  size(2) Largest target is 1
		 -> EUSART_DefaultErrorHandler(), 

    EUSART_ErrorHandler	PTR FTN()void  size(2) Largest target is 1
		 -> Absolute function(), EUSART_DefaultErrorHandler(), 

    EUSART_SetOverrunErrorHandler@interruptHandler	PTR FTN()void  size(2) Largest target is 1
		 -> EUSART_DefaultOverrunErrorHandler(), 

    EUSART_OverrunErrorHandler	PTR FTN()void  size(2) Largest target is 1
		 -> Absolute function(), EUSART_DefaultOverrunErrorHandler(), 

    EUSART_SetFramingErrorHandler@interruptHandler	PTR FTN()void  size(2) Largest target is 1
		 -> EUSART_DefaultFramingErrorHandler(), 

    EUSART_FramingErrorHandler	PTR FTN()void  size(2) Largest target is 1
		 -> Absolute function(), EUSART_DefaultFramingErrorHandler(), 


Critical Paths under _main in COMMON

    _main->_startUp
    _startUp->_setLEDColor
    _selectSomething->_setLEDColor
    _printf->___lwmod
    _putch->_EUSART_Write
    ___lwmod->___lwdiv
    _lowBattery->_setLEDColor
    _battery_voltage->___aldiv

Critical Paths under _INTERRUPT_InterruptManager in COMMON

    _INT_CallBack->_INT_DefaultInterruptHandler

Critical Paths under _main in BANK0

    _main->_process_remote_command
    _startUp->_setLEDColor
    _process_remote_command->_selectFrequency
    _selectSomething->_setLEDColor
    _selectFrequency->_printf
    _printf->___lwmod
    ___lwmod->___lwdiv
    _lowBattery->_setLEDColor
    _battery_voltage->___aldiv
    _EXT_INT_Initialize->_INT_SetInterruptHandler
    _EUSART_Initialize->_EUSART_SetErrorHandler
    _EUSART_Initialize->_EUSART_SetFramingErrorHandler
    _EUSART_Initialize->_EUSART_SetOverrunErrorHandler

Critical Paths under _INTERRUPT_InterruptManager in BANK0

    None.

Critical Paths under _main in BANK1

    None.

Critical Paths under _INTERRUPT_InterruptManager in BANK1

    None.

Critical Paths under _main in BANK2

    None.

Critical Paths under _INTERRUPT_InterruptManager in BANK2

    None.

Critical Paths under _main in BANK3

    None.

Critical Paths under _INTERRUPT_InterruptManager in BANK3

    None.

Critical Paths under _main in BANK4

    None.

Critical Paths under _INTERRUPT_InterruptManager in BANK4

    None.

Critical Paths under _main in BANK5

    None.

Critical Paths under _INTERRUPT_InterruptManager in BANK5

    None.

Critical Paths under _main in BANK6

    None.

Critical Paths under _INTERRUPT_InterruptManager in BANK6

    None.

Call Graph Tables:

 ---------------------------------------------------------------------------------
 (Depth) Function   	        Calls       Base Space   Used Autos Params    Refs
 ---------------------------------------------------------------------------------
 (0) _main                                                 1     1      0   22942
                                             30 BANK0      1     1      0
                     _DAC_Initialize
                    _OPA1_Initialize
                    _OPA2_Initialize
                  _SYSTEM_Initialize
                    _battery_voltage
                            _initLED
                         _lowBattery
             _process_remote_command
                            _startUp
 ---------------------------------------------------------------------------------
 (1) _startUp                                              3     3      0    3524
                                              4 COMMON     1     1      0
                                              2 BANK0      2     2      0
                        _setLEDColor
 ---------------------------------------------------------------------------------
 (1) _process_remote_command                               3     3      0   14541
                                             27 BANK0      3     3      0
                             _printf
                    _selectFrequency
                    _selectSomething
                        _setLEDColor
 ---------------------------------------------------------------------------------
 (2) _selectSomething                                      2     2      0    3456
                                              2 BANK0      2     2      0
                        _setLEDColor
 ---------------------------------------------------------------------------------
 (2) _selectFrequency                                      2     2      0    5506
                                             25 BANK0      2     2      0
                             _printf
                        _setLEDColor
 ---------------------------------------------------------------------------------
 (3) _printf                                              22    18      4    2050
                                             11 BANK0     14    10      4
                            ___lwdiv
                            ___lwmod
                              _putch
 ---------------------------------------------------------------------------------
 (4) _putch                                                1     1      0      62
                                              3 COMMON     1     1      0
                       _EUSART_Write
 ---------------------------------------------------------------------------------
 (5) _EUSART_Write                                         1     1      0      31
                                              2 COMMON     1     1      0
 ---------------------------------------------------------------------------------
 (4) ___lwmod                                              6     2      4     470
                                              3 COMMON     2     2      0
                                              7 BANK0      4     0      4
                            ___lwdiv (ARG)
 ---------------------------------------------------------------------------------
 (4) ___lwdiv                                              8     4      4     479
                                              2 COMMON     1     1      0
                                              0 BANK0      7     3      4
 ---------------------------------------------------------------------------------
 (1) _lowBattery                                           2     2      0    3456
                                              2 BANK0      2     2      0
                        _setLEDColor
 ---------------------------------------------------------------------------------
 (2) _setLEDColor                                          4     2      2    3456
                                              2 COMMON     2     2      0
                                              0 BANK0      2     0      2
 ---------------------------------------------------------------------------------
 (1) _initLED                                              1     1      0       0
                                              2 COMMON     1     1      0
 ---------------------------------------------------------------------------------
 (1) _battery_voltage                                      2     0      2     921
                                             14 BANK0      2     0      2
                            ___aldiv
 ---------------------------------------------------------------------------------
 (2) ___aldiv                                             15     7      8     921
                                              2 COMMON     1     1      0
                                              0 BANK0     14     6      8
 ---------------------------------------------------------------------------------
 (1) _SYSTEM_Initialize                                    0     0      0     500
                     _DAC_Initialize
                  _EUSART_Initialize
                 _EXT_INT_Initialize
                    _OPA1_Initialize
                    _OPA2_Initialize
              _OSCILLATOR_Initialize
             _PIN_MANAGER_Initialize
                    _TMR0_Initialize
                    _TMR2_Initialize
                     _WDT_Initialize
 ---------------------------------------------------------------------------------
 (2) _WDT_Initialize                                       0     0      0       0
 ---------------------------------------------------------------------------------
 (2) _TMR2_Initialize                                      0     0      0       0
 ---------------------------------------------------------------------------------
 (2) _TMR0_Initialize                                      0     0      0       0
 ---------------------------------------------------------------------------------
 (2) _PIN_MANAGER_Initialize                               0     0      0       0
 ---------------------------------------------------------------------------------
 (2) _OSCILLATOR_Initialize                                0     0      0       0
 ---------------------------------------------------------------------------------
 (2) _OPA2_Initialize                                      0     0      0       0
 ---------------------------------------------------------------------------------
 (2) _OPA1_Initialize                                      0     0      0       0
 ---------------------------------------------------------------------------------
 (2) _EXT_INT_Initialize                                   0     0      0     125
            _INT_SetInterruptHandler
 ---------------------------------------------------------------------------------
 (3) _INT_SetInterruptHandler                              2     0      2     125
                                              0 BANK0      2     0      2
 ---------------------------------------------------------------------------------
 (2) _EUSART_Initialize                                    0     0      0     375
             _EUSART_SetErrorHandler
      _EUSART_SetFramingErrorHandler
      _EUSART_SetOverrunErrorHandler
 ---------------------------------------------------------------------------------
 (3) _EUSART_SetOverrunErrorHandler                        2     0      2     125
                                              0 BANK0      2     0      2
 ---------------------------------------------------------------------------------
 (3) _EUSART_SetFramingErrorHandler                        2     0      2     125
                                              0 BANK0      2     0      2
 ---------------------------------------------------------------------------------
 (3) _EUSART_SetErrorHandler                               2     0      2     125
                                              0 BANK0      2     0      2
 ---------------------------------------------------------------------------------
 (2) _DAC_Initialize                                       0     0      0       0
 ---------------------------------------------------------------------------------
 Estimated maximum stack depth 5
 ---------------------------------------------------------------------------------
 (Depth) Function   	        Calls       Base Space   Used Autos Params    Refs
 ---------------------------------------------------------------------------------
 (6) _INTERRUPT_InterruptManager                           0     0      0     200
                            _INT_ISR
                    _PIN_MANAGER_IOC
 ---------------------------------------------------------------------------------
 (7) _PIN_MANAGER_IOC                                      0     0      0       0
 ---------------------------------------------------------------------------------
 (7) _INT_ISR                                              0     0      0     200
                       _INT_CallBack
 ---------------------------------------------------------------------------------
 (8) _INT_CallBack                                         0     0      0     200
                   Absolute function *
        _INT_DefaultInterruptHandler *
 ---------------------------------------------------------------------------------
 (9) _INT_DefaultInterruptHandler                          2     2      0     200
                                              0 COMMON     2     2      0
 ---------------------------------------------------------------------------------
 (9) Absolute function(Fake)                               0     0      0       0
 ---------------------------------------------------------------------------------
 Estimated maximum stack depth 9
 ---------------------------------------------------------------------------------

 Call Graph Graphs:

 _main (ROOT)
   _DAC_Initialize
   _OPA1_Initialize
   _OPA2_Initialize
   _SYSTEM_Initialize
     _DAC_Initialize
     _EUSART_Initialize
       _EUSART_SetErrorHandler
       _EUSART_SetFramingErrorHandler
       _EUSART_SetOverrunErrorHandler
     _EXT_INT_Initialize
       _INT_SetInterruptHandler
     _OPA1_Initialize
     _OPA2_Initialize
     _OSCILLATOR_Initialize
     _PIN_MANAGER_Initialize
     _TMR0_Initialize
     _TMR2_Initialize
     _WDT_Initialize
   _battery_voltage
     ___aldiv
   _initLED
   _lowBattery
     _setLEDColor
   _process_remote_command
     _printf
       ___lwdiv
       ___lwmod
         ___lwdiv (ARG)
       _putch
         _EUSART_Write
     _selectFrequency
       _printf
         ___lwdiv
         ___lwmod
           ___lwdiv (ARG)
         _putch
           _EUSART_Write
       _setLEDColor
     _selectSomething
       _setLEDColor
     _setLEDColor
   _startUp
     _setLEDColor

 _INTERRUPT_InterruptManager (ROOT)
   _INT_ISR
     _INT_CallBack
       Absolute function(Fake) *
       _INT_DefaultInterruptHandler *
   _PIN_MANAGER_IOC

 Address spaces:
Name               Size   Autos  Total    Cost      Usage
BIGRAM             1F0      0       0       0        0.0%
NULL                 0      0       0       0        0.0%
CODE                 0      0       0       0        0.0%
BITCOMMON            E      0       0       1        0.0%
BITSFR0              0      0       0       1        0.0%
SFR0                 0      0       0       1        0.0%
COMMON               E      5       C       2       85.7%
BITSFR1              0      0       0       2        0.0%
SFR1                 0      0       0       2        0.0%
BITSFR2              0      0       0       3        0.0%
SFR2                 0      0       0       3        0.0%
STACK                0      0       0       3        0.0%
BITSFR3              0      0       0       4        0.0%
SFR3                 0      0       0       4        0.0%
ABS                  0      0      62       4        0.0%
BITBANK0            50      0       0       5        0.0%
BITSFR4              0      0       0       5        0.0%
SFR4                 0      0       0       5        0.0%
BANK0               50     1F      35       6       66.2%
BITSFR5              0      0       0       6        0.0%
SFR5                 0      0       0       6        0.0%
BITBANK1            50      0       0       7        0.0%
BITSFR6              0      0       0       7        0.0%
SFR6                 0      0       0       7        0.0%
BANK1               50      0      21       8       41.2%
BITSFR7              0      0       0       8        0.0%
SFR7                 0      0       0       8        0.0%
BITBANK2            50      0       0       9        0.0%
BITSFR8              0      0       0       9        0.0%
SFR8                 0      0       0       9        0.0%
BANK2               50      0       0      10        0.0%
BITSFR9              0      0       0      10        0.0%
SFR9                 0      0       0      10        0.0%
BITBANK3            50      0       0      11        0.0%
BITSFR10             0      0       0      11        0.0%
SFR10                0      0       0      11        0.0%
BANK3               50      0       0      12        0.0%
BITSFR11             0      0       0      12        0.0%
SFR11                0      0       0      12        0.0%
BITBANK4            50      0       0      13        0.0%
BITSFR12             0      0       0      13        0.0%
SFR12                0      0       0      13        0.0%
BANK4               50      0       0      14        0.0%
BITSFR13             0      0       0      14        0.0%
SFR13                0      0       0      14        0.0%
BITBANK5            50      0       0      15        0.0%
BITSFR14             0      0       0      15        0.0%
SFR14                0      0       0      15        0.0%
BANK5               50      0       0      16        0.0%
BITSFR15             0      0       0      16        0.0%
SFR15                0      0       0      16        0.0%
BITBANK6            10      0       0      17        0.0%
BITSFR16             0      0       0      17        0.0%
SFR16                0      0       0      17        0.0%
BANK6               10      0       0      18        0.0%
BITSFR17             0      0       0      18        0.0%
SFR17                0      0       0      18        0.0%
BITSFR18             0      0       0      19        0.0%
SFR18                0      0       0      19        0.0%
DATA                 0      0      62      19        0.0%
BITSFR19             0      0       0      20        0.0%
SFR19                0      0       0      20        0.0%
BITSFR20             0      0       0      21        0.0%
SFR20                0      0       0      21        0.0%
BITSFR21             0      0       0      22        0.0%
SFR21                0      0       0      22        0.0%
BITSFR22             0      0       0      23        0.0%
SFR22                0      0       0      23        0.0%
BITSFR23             0      0       0      24        0.0%
SFR23                0      0       0      24        0.0%
BITSFR24             0      0       0      25        0.0%
SFR24                0      0       0      25        0.0%
BITSFR25             0      0       0      26        0.0%
SFR25                0      0       0      26        0.0%
BITSFR26             0      0       0      27        0.0%
SFR26                0      0       0      27        0.0%
BITSFR27             0      0       0      28        0.0%
SFR27                0      0       0      28        0.0%
BITSFR28             0      0       0      29        0.0%
SFR28                0      0       0      29        0.0%
BITSFR29             0      0       0      30        0.0%
SFR29                0      0       0      30        0.0%
BITSFR30             0      0       0      31        0.0%
SFR30                0      0       0      31        0.0%
BITSFR31             0      0       0      32        0.0%
SFR31                0      0       0      32        0.0%


Microchip Technology PIC Macro Assembler V2.20 build 20200408173844 
Symbol Table                                                                                   Sat Jul 18 17:05:43 2020

                      __end_of_OPA1_Initialize 05A6                                _timer0ReloadVal 0070  
                                          l421 043A                                            l418 0430  
                                          l197 0556                                            l485 03DD  
                                          l584 01B1                                            l659 01C3  
                                          _PR2 001B                 ?_EUSART_SetFramingErrorHandler 0020  
                              _TMR2_Initialize 055D                                            wreg 0009  
                     __size_of_selectFrequency 0028                                           l2203 04F5  
                                         l2301 01F2                                           l2205 04FA  
                                         l2223 0138                                           l2313 021D  
                                         l2161 036C                                           l2233 014E  
                                         l2217 0120                                           l2163 0378  
                                         l2411 006C                                           l2403 0054  
                                         l2317 022B                                           l2309 0212  
                                         l2173 0393                                           l2245 016F  
                                         l2405 0064                                           l2191 0475  
                                         l2255 017C                                           l2239 0150  
                                         l2431 0090                                           l2169 038A  
                                         l2185 045D                                           l2249 0177  
                                         l2257 0104                                           l2409 0068  
                                         l2291 01D4                                           l2187 0469  
                                         l2195 047E                                           l2419 0087  
                                         l2429 008C                                           l2453 00B0  
                                         l2381 0331                                           l2439 009E  
                                         l2455 00DE                                           l2391 0039  
                                         l2471 03EF                                           l2449 00AE  
                                         l2299 01E4                                           l2399 004D  
                                         STR_1 0506                                           STR_2 0596  
                                         STR_3 0596                                           STR_4 051B  
                                         u2007 0420                                           _LATA 010C  
                                         _LATB 010D                                __end_of_INT_ISR 05AA  
                                         _LATC 010E                                           u1515 0379  
                                         u1525 0383                                           u1535 038B  
                                         u1725 01E7                                           u1565 0460  
                                         u1645 0165                                           u1495 036F  
                                         u1815 035E                                           u1745 01F3  
                                         u1585 046F                                           u1755 0207  
                                         u1595 0476                                           u1765 0213  
                                         u1917 033E                                           u1927 034C  
                                         u1937 00F1                                           u1947 02A6  
                                         u1957 02BA                                           u1967 02CE  
                                         u1895 03EA                                           u1977 02E2  
                                         u1987 0495                                           u1997 040C  
                                         _TMR0 0015                                           _TMR2 001A  
                      __end_of_OPA2_Initialize 05A2                                           _WPUA 020C  
                                         _WPUB 020D                                           _WPUC 020E  
                                         _flag 0046                                           _main 03C9  
                                         _duty 0044                                           fsr0h 0005  
                                         fsr1h 0007                                           indf0 0000  
                                         fsr0l 0004                                           indf1 0001  
                                         fsr1l 0006                                           btemp 007E  
          __end_of_INT_DefaultInterruptHandler 0299                    _INT_DefaultInterruptHandler 0234  
                                         start 0014                __end_of_INT_SetInterruptHandler 0579  
                      __end_of_TMR0_Initialize 0555                                  ?_EUSART_Write 0077  
               __size_of_OSCILLATOR_Initialize 0008                  __end_of_OSCILLATOR_Initialize 056D  
                              __end_of___aldiv 0234                                          ?_main 0077  
                                        _ADRES 009B                                          _T2CON 001C  
                              __end_of___lwdiv 0398                                          i1l130 0012  
                                        i1l126 000D                                          i1l255 0297  
                              __end_of___lwmod 0483                                   ?_setLEDColor 0020  
                     __size_of_selectSomething 0051                                          _TRISA 008C  
                                        _TRISB 008D                                          _TRISC 008E  
                                        u82_25 0250                                          _RXPPS 0E24  
                              __end_of_initLED 032E                        __end_of_PIN_MANAGER_IOC 05AB  
                              __end_of_dpowers 054B                                 _WDT_Initialize 059A  
                                        _putch 0591                                          _stats 00A0  
                                        pclath 000A                                __end_of_startUp 0363  
                                        status 0003                        ?_process_remote_command 0077  
                                        wtemp0 007E                               ??_DAC_Initialize 0079  
                              __initialization 0016                                   __end_of_main 03F9  
                               ??_EUSART_Write 0079                        __end_of_TMR2_Initialize 0565  
                  ?_INTERRUPT_InterruptManager 0077                               ?_OPA1_Initialize 0077  
                                       ??_main 003E                       __size_of_battery_voltage 002E  
                       __end_of_WDT_Initialize 059E                                      ??_INT_ISR 0079  
            _EUSART_DefaultFramingErrorHandler 0000                                         _ADCON0 009D  
                                       _ADCON1 009E                     _EUSART_OverrunErrorHandler 0051  
                                       _CCPR1L 0291                                         _ANSELA 018C  
                                       ?_putch 0077                                         _ANSELB 018D  
                                       _ANSELC 018E                                         _BORCON 0116  
                                       _RC1REG 0199                                         _RA5PPS 0E95  
                                       _RC1STA 019D                                         _RC4PPS 0EA4  
                                       _RB7PPS 0E9F                                         _RC5PPS 0EA5  
                                       _ODCONA 028C                                         _ODCONB 028D  
                                       _ODCONC 028E                                         i1l1707 0267  
               __end_of_process_remote_command 00FF                                         i1l1717 027D  
                                       i1l1709 026C                                         i1l1719 027F  
                                       i1l1729 028C                                         i1l1687 023E  
                                       i1l1697 024F                                         _INLVLA 038C  
                                       _INLVLB 038D                                         _INLVLC 038E  
                                       _FVRCON 0117                                         _INTPPS 0E10  
                             ?_OPA2_Initialize 0077                                         _OSCCON 0099  
                                       _TX1REG 019A                                         _WDTCON 0097  
                                       _TX1STA 019E                              ??_selectFrequency 0039  
                                       _Vdd_mv 003F                                      ??___aldiv 0079  
                                    ??___lwdiv 0079                                      ??___lwmod 007A  
                             ?_TMR0_Initialize 0077                                         _printf 00FF  
                                ?_INT_CallBack 0077                                      ??_initLED 0079  
                              ?_WDT_Initialize 0077               __size_of_INT_SetInterruptHandler 0006  
                                    ??_startUp 007B        INT_SetInterruptHandler@InterruptHandler 0020  
                             ?_PIN_MANAGER_IOC 0077                              ??_selectSomething 0022  
                            _SYSTEM_Initialize 04CF                        __end_of__initialization 002C  
                           ?_SYSTEM_Initialize 0077                                 __pcstackCOMMON 0077  
                          ??_SYSTEM_Initialize 0079                                  __end_of_putch 0596  
                             ?_TMR2_Initialize 0077                                 ??_INT_CallBack 0079  
                  __size_of_EXT_INT_Initialize 000C                                 _OPTION_REGbits 0095  
                         __size_of_setLEDColor 0019                ??_EUSART_SetOverrunErrorHandler 0079  
                            ??_battery_voltage 007A                      __end_of_SYSTEM_Initialize 04ED  
                                      ??_putch 007A                                     __pbssBANK0 003F  
                                   __pbssBANK1 00A0                           __end_of_EUSART_Write 055D  
                                   __pmaintext 03C9                                     __pintentry 0004  
                                      ?_printf 002B                                        _OPA1CON 0511  
                                      _OPA2CON 0515                                        _LED_red 0049  
                                      _SP1BRGH 019C                                        _SP1BRGL 019B  
                                      _INT_ISR 05A6                                        _OSCSTAT 009A  
                                      _OSCTUNE 0098                                        _PWM3DCH 0618  
                                      _PWM4DCH 061B                                        _SLRCONA 030C  
                                      _SLRCONB 030D                                        _SLRCONC 030E  
                     ??_EUSART_SetErrorHandler 0079                                        _Vdac_mv 004B  
                                      ___aldiv 01B2                                        ___lwdiv 0363  
                                      ___lwmod 0456                                        __ptext1 032E  
                                      __ptext2 0030                                        __ptext3 0299  
                                      __ptext4 0483                                        __ptext5 00FF  
                                      __ptext6 0591                                        __ptext7 0555  
                                      __ptext8 0456                                        __ptext9 0363  
                              __size_of_printf 00B3                                        _initLED 02EA  
                                      _ir_code 0071                                     _lowBattery 03F9  
                                      _dpowers 0541                          _OSCILLATOR_Initialize 0565  
                                    _T2CONbits 001C                                        _current 0043  
                             ___aldiv@dividend 0024                       ??_PIN_MANAGER_Initialize 0079  
                      _INT_SetInterruptHandler 0573                                _selectFrequency 0483  
                                      _startUp 032E                     __size_of_SYSTEM_Initialize 001E  
                                      clrloop0 056E                           end_of_initialization 002C  
        __end_of_EUSART_SetOverrunErrorHandler 057F         __size_of_EUSART_SetOverrunErrorHandler 0006  
                _EUSART_SetOverrunErrorHandler 0579                                      _LED_green 0048  
                         __end_of_INT_CallBack 0541                              _EUSART_Initialize 04AB  
                           ?_EUSART_Initialize 0077                                        printf@c 0038  
                                      printf@f 002B                               ___aldiv@quotient 002A  
                              setLEDColor@blue 0021                            ??_EUSART_Initialize 0079  
                             ??_WDT_Initialize 0079                                _selectSomething 0299  
                        __size_of_EUSART_Write 0008                       __size_of_OPA1_Initialize 0004  
              __size_of_EUSART_SetErrorHandler 0006                      __end_of_EUSART_Initialize 04CF  
                                  _CCP1CONbits 0293                       __size_of_OPA2_Initialize 0004  
                   _EUSART_DefaultErrorHandler 0000                                _battery_voltage 0428  
                                 _EUSART_Write 0555                         ?_OSCILLATOR_Initialize 0077  
                      __end_of_selectFrequency 04AB                      ??_INT_SetInterruptHandler 0079  
                      __size_of_DAC_Initialize 0006                                    ?_lowBattery 0077  
                               __end_of_printf 01B2                            start_initialization 0016  
                     __size_of_TMR0_Initialize 000A                __size_of_PIN_MANAGER_Initialize 0031  
                                  putch@txData 007A                       __size_of_PIN_MANAGER_IOC 0001  
                 ?_INT_DefaultInterruptHandler 0077                 ?_EUSART_SetOverrunErrorHandler 0020  
                   _EUSART_FramingErrorHandler 0053                        __end_of_selectSomething 02EA  
                       _EUSART_SetErrorHandler 0585                                    _CCPTMRSbits 029E  
                   __end_of_EXT_INT_Initialize 0536                                       ??_printf 002F  
                                ??_setLEDColor 0079                                    __pbssCOMMON 0070  
                                    ___latbits 0001                       ??_process_remote_command 003B  
                                     ?_INT_ISR 0077                                  __pcstackBANK0 0020  
                     __size_of_TMR2_Initialize 0008                          __size_of_INT_CallBack 000B  
                   __size_of_EUSART_Initialize 0024                              ??_OPA1_Initialize 0079  
                                    __pnvBANK0 004D                            __size_of_lowBattery 002F  
                             ___lwdiv@dividend 0022                         _PIN_MANAGER_Initialize 0398  
                      __end_of_battery_voltage 0456                  ??_INT_DefaultInterruptHandler 0077  
                                     ?___aldiv 0020                                       ?___lwdiv 0020  
                                     ?___lwmod 0027                                       _DAC1CON0 0118  
                                     _DAC1CON1 0119                   ??_INTERRUPT_InterruptManager 0079  
                            ??_OPA2_Initialize 0079                               ?_selectFrequency 0077  
                                 _INT_CallBack 0536                                       _BAUD1CON 019F  
                                     ?_initLED 0077                                      _frequency 0045  
                             ___lwdiv@quotient 0025                                       ?_startUp 0077  
                          __end_of_setLEDColor 0506                                      _microamps 0041  
                               __size_of_putch 0005                                ___aldiv@divisor 0020  
                            ??_TMR0_Initialize 0079                                ___aldiv@counter 0028  
       EUSART_SetErrorHandler@interruptHandler 0020                                       _LED_blue 0047  
                                    clear_ram0 056D                              _eusartRxLastError 004A  
          __size_of_INTERRUPT_InterruptManager 0010                                       _PIR1bits 0011  
              ??_EUSART_SetFramingErrorHandler 0079                               ?_selectSomething 0077  
                               setLEDColor@red 007A              _EUSART_DefaultOverrunErrorHandler 0000  
                            ??_PIN_MANAGER_IOC 0077                                     _ADCON0bits 009D  
                               _DAC_Initialize 058B                                     printf@flag 0034  
                                   printf@prec 0035           __size_of_INT_DefaultInterruptHandler 0065  
              __size_of_process_remote_command 00CF                               __size_of_INT_ISR 0004  
                            ??_TMR2_Initialize 0079                               ?_battery_voltage 002E  
                      ??_OSCILLATOR_Initialize 0079                            _EUSART_ErrorHandler 004F  
                             __size_of___aldiv 0082                         __end_of_DAC_Initialize 0591  
                             __size_of___lwdiv 0035                               __size_of___lwmod 002D  
                                 ??_lowBattery 0022                                    _setLEDColor 04ED  
                             __size_of_initLED 0044                                ___lwdiv@divisor 0020  
                              ___lwdiv@counter 0024                                       __ptext10 03F9  
                                     __ptext11 04ED                                       __ptext20 0565  
                                     __ptext12 02EA                                       __ptext21 059E  
                                     __ptext13 0428                                       __ptext22 05A2  
                                     __ptext14 01B2                                       __ptext31 05AA  
                                     __ptext23 052A                                       __ptext15 04CF  
                                     __ptext32 05A6                                       __ptext24 0573  
                                     __ptext16 059A                                       __ptext33 0536  
                                     __ptext25 04AB                                       __ptext17 055D  
                                     __ptext34 0234                                       __ptext26 0579  
                                     __ptext18 054B                                       __ptext27 057F  
                                     __ptext19 0398                                       __ptext28 0585  
                                     __ptext29 058B                               __size_of_startUp 0035  
                                __size_of_main 0030                        ?_EUSART_SetErrorHandler 0020  
                       _process_remote_command 0030                                     _RC1STAbits 019D  
                           __end_of_lowBattery 0428  EUSART_SetOverrunErrorHandler@interruptHandler 0020  
                                     int$flags 007E             __end_of_INTERRUPT_InterruptManager 0014  
                   _INTERRUPT_InterruptManager 0004          __end_of_EUSART_SetFramingErrorHandler 0585  
       __size_of_EUSART_SetFramingErrorHandler 0006                  _EUSART_SetFramingErrorHandler 057F  
                              ?_DAC_Initialize 0077                                      printf@val 0036  
                                   _INTCONbits 000B                INT_DefaultInterruptHandler@time 0078  
                                  _PWM3DCLbits 0617                                _OPA1_Initialize 05A2  
                                  _PWM4DCLbits 061A                                     _FVRCONbits 0117  
                         _INT_InterruptHandler 004D                                    _PWM3CONbits 0619  
                                  _PWM4CONbits 061C                             _EXT_INT_Initialize 052A  
                      __size_of_WDT_Initialize 0004                                       intlevel1 0000  
                             ___lwmod@dividend 0029                        ?_PIN_MANAGER_Initialize 0077  
                   process_remote_command@code 003D                 __end_of_EUSART_SetErrorHandler 058B  
                          ?_EXT_INT_Initialize 0077                                _OPA2_Initialize 059E  
                                     printf@ap 0033  EUSART_SetFramingErrorHandler@interruptHandler 0020  
                     ?_INT_SetInterruptHandler 0020                                       startUp@i 0022  
                                __pstringtext1 0541                                  __pstringtext2 0506  
                                __pstringtext3 051B                                  __pstringtext4 0596  
                                __pstringtext5 0000                           ??_EXT_INT_Initialize 0079  
                                   _OPTION_REG 0095                               setLEDColor@green 0020  
                              ___lwmod@divisor 0027                                _TMR0_Initialize 054B  
                              ___lwmod@counter 007B                                   ___aldiv@sign 0029  
                                   _TX1STAbits 019E                             EUSART_Write@txData 0079  
               __end_of_PIN_MANAGER_Initialize 03C9                                _PIN_MANAGER_IOC 05AA  
